(dp0
VBBn-7tzwfIw
p1
I654
sVF2umrNjGZfU
p2
I390
sVp5KLsTX-T8Q
p3
I9145
sV1GR63Uu55dM
p4
I947
sVuwiKd2GaJ8o
p5
I14535
sVUSIUYyoe5-o
p6
I2008
sVedK01e175hs
p7
I3032
sV6Wl2ZGhKxzw
p8
I203
sVS7llJPLiMCo
p9
I165
sVcniKrf-seMY
p10
I621
sV0ZfA1dECsrU
p11
I943
sVusj7ihuiCKQ
p12
I2014
sVcSznU27Nbyg
p13
I734
sV1M9mmnBTEAA
p14
I13716
sV15YWLcStacI
p15
I1336
sVJJ68oJENETU
p16
I6606
sVh_zmkPiJQiY
p17
I369
sVLcwKGBC1BM8
p18
I5742
sVhNJ3EHjvwcU
p19
I37
sVlkgwlK7zC04
p20
I584
sVQJWLEclIow8
p21
I2111
sVkz9Vzmxctz8
p22
I481
sV_SFU8aav9Q4
p23
I1421
sVUh5eB11fqeA
p24
I414
sVtLTOvihLHC0
p25
I393
sVtNvasOU1yvE
p26
I1210
sVmmgdsamQQ8M
p27
I2211
sVzn340TpbMLQ
p28
I620
sV2BBqceZr6ik
p29
I2321
sVNALb1Ih5C0g
p30
I2254
sVfj7Uk4ko_-I
p31
I606
sVDXmrz43LuIs
p32
I820
sVVFD_3Azdl3w
p33
I697
sVHKFYdEAicuE
p34
I507
sVjxgCjolXt80
p35
I4387
sVhJ2686BN8P0
p36
I1746
sV53a_8hJh-tA
p37
I3246
sVPFs6iGBIY-4
p38
I624
sVSZmxLhfc8ng
p39
I13891
sVZ73T-ijzBwM
p40
I170
sVrFW2ZwVb7aE
p41
I2040
sVowvu3DaBBUU
p42
I3516
sVLdZOGOZ2lGM
p43
I2300
sV8-lFtpns-iY
p44
I347
sVHFnkY7Mw75o
p45
I3867
sVdqvJQ1tafA8
p46
I2550
sVdST2e3u_H8s
p47
I3173
sVtp1DDfzmsPA
p48
I10928
sVwXCeguXDs7o
p49
I939
sVDRl2OrIGYNg
p50
I854
sVJUyc0fCHjjM
p51
I3291
sVbIHOWsgqh9Q
p52
I799
sVd5GTnRx98BA
p53
I3284
sVeea3S0cPWRI
p54
I5902
sVRLxBsQkYe9I
p55
I1314
sVRCZ-Kem6yGQ
p56
I337
sVv4ANAQ_umAc
p57
I1053
sVi-u5oYOM80I
p58
I1105
sV1MopV-J2KoA
p59
I508
sVpDNTtlTCeWQ
p60
I472
sVsbhZ-qA2Bpc
p61
I971
sVjztYFMHQGOs
p62
I6520
sVrCGFZ0uO6SY
p63
I606
sVdyI62tijO8w
p64
I7463
sVTbRxNRl-Bc8
p65
I6672
sVoziEazczNPE
p66
I636
sV-Rwc2ut0kzs
p67
I1798
sVpLXJErUmDAc
p68
I2169
sVYIeORf_TKc0
p69
I13792
sVqVxVt9ZlcXs
p70
I3671
sVkvYvzGu-NvQ
p71
I2529
sVrm_JZjkB7BU
p72
I295
sVqFMOGeeruvU
p73
I887
sVieGxWUztcG4
p74
I1361
sVgSgztNUiSao
p75
I3224
sVRfVvwxP40OE
p76
I1532
sVnJhbpAoXVjo
p77
I1004
sVeyQmzWoQtVI
p78
I652
sVegzd7RLNqRI
p79
I4011
sVB1i8wTqARXo
p80
I2760
sVhcV9vrSGmKE
p81
I6353
sVtU0bcd5WnKE
p82
I2164
sVAgWyZ0TtrTs
p83
I7441
sVLAp1_FMwTYE
p84
I2790
sVZGIJ0TD8gA4
p85
I1412
sVjYoCZ7exQKA
p86
I1480
sVNeCdO9b4wEk
p87
I6267
sVt_3qU4wZj6c
p88
I265
sVWfOw-qx8Fhs
p89
I930
sVXrMR8774N1s
p90
I1917
sVBItzEDVMc-M
p91
I3042
sVk7kicnl1dR4
p92
I5109
sV2DXuOLzbmSE
p93
I856
sVRoUatnSknDQ
p94
I1349
sVgpvMbGnQNnE
p95
I1105
sVLFjylsPhF3w
p96
I407
sVsRsHkRaGJ2I
p97
I1048
sVkzuIX6fByZQ
p98
I522
sVdRuoO7xmnpY
p99
I769
sVeZUyVKEID3c
p100
I2914
sVym_piJAH-kM
p101
I4672
sVl02sfXOaH1w
p102
I1435
sVXVboIAoUI48
p103
I385
sVLIV14skDPls
p104
I386
sV1eDITCytUf8
p105
I1204
sV552JFboN8QU
p106
I3973
sVrpVgDwLFiPs
p107
I599
sVF8FEJAZeftY
p108
I425
sVrMOXu-Gw58c
p109
I200
sVdGTktkPk5J4
p110
I1082
sVjx1STY3vg6o
p111
I967
sVKvRppBy07v4
p112
I1015
sVPnIaRSVO4sk
p113
I3585
sVlhZyV5DzOQk
p114
I274
sVhfrTveNwWrc
p115
I6939
sVNU0bKzsfJbA
p116
I2699
sVP9uS_vH4MGU
p117
I1974
sV40MwwJyIpy4
p118
I5137
sVDBX3t4QUjew
p119
I36
sV8FRV6S1Sh6o
p120
I2433
sV3WN4RCEb9g0
p121
I968
sVhLRBrBvwJ90
p122
I4923
sVZW21pGk3SiM
p123
I108
sV2G3HpgZMa60
p124
I1052
sVnkd3LYS1ZeE
p125
I3646
sV41NKQFiPWS4
p126
I1049
sV65pqNo2Pojg
p127
I1414
sVdfc-YAsaja0
p128
I487
sVn6sZt9bzWrw
p129
I360
sVJIKTjGZdbd8
p130
I1653
sV3uzidn2FrIY
p131
I335
sV1AtxVk-_q9o
p132
I4713
sVFd5QYP4I7iA
p133
I4553
sVhq7jTumg4SE
p134
I3497
sVBGuwM8_m2XA
p135
I969
sVlQJsYCXhUVk
p136
I3924
sVQdGpnIjxTvU
p137
I1051
sVHE_d0m8sNqk
p138
I5310
sVR8ozFBUmZBY
p139
I1197
sVUvkGc6S9Pd0
p140
I1366
sV-QducG1luNo
p141
I1002
sV351a1pSG98Y
p142
I957
sV8DoDuYfJqPk
p143
I736
sVVBnJdb3iMDM
p144
I531
sVDA_6cFbsCys
p145
I354
sV1TPJlKU3XHk
p146
I604
sVXoSfFGc8Chw
p147
I2432
sVRnSoQpkH1zE
p148
I965
sVrtvtjy9CcBU
p149
I2858
sV1C1uEugmodk
p150
I4382
sVz8PTjsQKZUk
p151
I1164
sVGxu_Rpicuyo
p152
I1283
sV7zmmHL3LbLQ
p153
I8700
sVXJ8YfBhYGN8
p154
I1902
sVDecUfDTWBy0
p155
I658
sVnBJv1pUMD8w
p156
I1278
sVFW04BrQUaZQ
p157
I1921
sV1fuo11zOuWw
p158
I5172
sVZbATm728k8Y
p159
I1643
sVTF7Ks4ciJSo
p160
I768
sVkGSrwq1GRLY
p161
I272
sV1TeWQFee-bM
p162
I3894
sVu8RQ_8lqv18
p163
I1401
sV8-2bt2l5dQA
p164
I1376
sVfL4M7BMTNYw
p165
I5213
sVdrfwEivlXu0
p166
I1229
sVlxtqpDPXEbw
p167
I1514
sVpQ9_E8vtlas
p168
I1312
sVGThpN9EhKkg
p169
I2800
sVrM6u0KuD_tM
p170
I1450
sVdZAa61ZiOkg
p171
I8653
sVntYNg7XBvxs
p172
I366
sVrj8kJfbFEck
p173
I95
sVshaHTs-ejmg
p174
I828
sVXSA9-4b7AaA
p175
I1744
sVEcLf2iZM6DM
p176
I2008
sVYWiCedDfKTY
p177
I2276
sVtPfHDnDbNic
p178
I2847
sVsmnfjM6_XCU
p179
I2642
sV67U1rfGBnkQ
p180
I3820
sV_szky-qABxc
p181
I108
sVH0XVL0UQr6U
p182
I4552
sV0SBHkS5ho3M
p183
I89
sVLpqFZqTiEdg
p184
I1233
sVp2QBY1FA-aA
p185
I3956
sVfJ38TdDUnJw
p186
I3886
sVqtOWH1y4qcc
p187
I5738
sVEWbDQ-B13jE
p188
I1109
sVlzR--M0RlTw
p189
I515
sVh3WX6CiA7po
p190
I1314
sVqHB1dn4VgH8
p191
I830
sVLbrKtwrT0FA
p192
I6814
sVdxoVwyQpHaI
p193
I1822
sV1_bgKeogKe4
p194
I1115
sVtrNDy-EVJcU
p195
I673
sVVEdTqk90Row
p196
I702
sVM8njXv-9gP4
p197
I1499
sVkE3S3B6lq5M
p198
I1325
sVPexA5eCNPhM
p199
I2501
sV-kPG1z_pFDk
p200
I3187
sV81nhzka4k24
p201
I1954
sVMG9Y6v513BY
p202
I1348
sVQ7zg8S8JOc4
p203
I1870
sVocygRo8hVdQ
p204
I1267
sVGyvuo2aMF-Q
p205
I1591
sVtDSH9ouigZc
p206
I4082
sVLQ397gk44rY
p207
I503
sVbEf6bTSWYqw
p208
I2156
sVZNXH5C0nJaI
p209
I1552
sVN9CO9gqJm20
p210
I731
sV_RAvLAM0vaE
p211
I1677
sVSbKGIRrcbGE
p212
I213
sVdg7xdoOV_T4
p213
I4377
sV_k6SLMKSWic
p214
I3049
sVFLTTJfF03Bs
p215
I3593
sVnn0SF58_sAM
p216
I4063
sVESPz6k4kLfY
p217
I516
sVd3wPwVpbZac
p218
I3093
sVLWXbqEeSI_c
p219
I1041
sVisEzIJJ-bRA
p220
I2212
sVYkUHUijDGJw
p221
I1343
sVcvSyrigyC7w
p222
I2035
sVxbgKOLk5-Co
p223
I2405
sVBTYvoglrj1Q
p224
I1038
sVtT4IoVu7_Mw
p225
I3480
sVMa26xKKFqnk
p226
I880
sVbAo83ID9h9Y
p227
I1886
sV-Ke7s03UGRU
p228
I775
sVy87iDUPhx-8
p229
I2626
sVQPAxOPJV3N8
p230
I1472
sVO6cbrPLJf_Y
p231
I1306
sVIsAovEmVRfY
p232
I1348
sVtCVH0Xb_TIE
p233
I758
sVmW4SNLXx-5o
p234
I4063
sVQmyZDpex11E
p235
I857
sVfD3ppflD5WQ
p236
I994
sVdJAZ3KDXcw4
p237
I165
sV2qKGHNVwBwg
p238
I467
sVDKO7H1t9000
p239
I841
sVZcRFaZZmyco
p240
I232
sVIgBs8FacQuc
p241
I719
sVq_1NgNkW-3I
p242
I255
sVY6drDqtqeWk
p243
I1366
sVktVCwzYPF_c
p244
I674
sV1HFl03-NLOY
p245
I3960
sVYfO8ekcwSI8
p246
I506
sVqaEeFHfeW1Q
p247
I823
sVHaZ7ksm0MxI
p248
I288
sVg3Y1hCYdrfo
p249
I755
sV-mxGH7o1thM
p250
I6563
sVvQJQyqwLbiQ
p251
I652
sV3MPgb3v30uU
p252
I1762
sVzFPSoghmug8
p253
I190
sVWgUk_rO3edc
p254
I786
sVEttjw2eFMj0
p255
I4213
sVjSYK7tLQY-o
p256
I255
sVZWgx3boi4mQ
p257
I2688
sV0wGQgwMBfcA
p258
I1568
sVECXc6MeUL98
p259
I3794
sV3t8ZXmt_I6w
p260
I2045
sVzLrEnAU1BoY
p261
I1145
sVOzOpvm3udRc
p262
I2807
sVSjnmHXkfkrQ
p263
I11075
sVyfDFXojdPQQ
p264
I2233
sVrdZ0bi0LNP4
p265
I2633
sVzHO99jU8scg
p266
I528
sVGLfyRlJuXhg
p267
I2272
sVoe2tyzpUl5Y
p268
I665
sVsflBHczZlJg
p269
I815
sVDNSjnBIp_4M
p270
I3173
sV1aPYJdiOFUc
p271
I2078
sVm8tguF6aeRc
p272
I1181
sV0mdRYnaSB1Y
p273
I1021
sVldxleodwys4
p274
I1600
sVvgmTnHIlvP4
p275
I2674
sVc5q-O2DHvO0
p276
I1568
sVesaoZSTpp3U
p277
I1599
sVUGYnkf4WZrY
p278
I1668
sVZXdZpzS6xyw
p279
I452
sVx_vGAS5ex6s
p280
I9836
sVzzfAuHatgZM
p281
I2721
sVUn_9rIVI8BM
p282
I1555
sVK-581RPP4c0
p283
I6045
sVqL2bdd_tMNc
p284
I993
sVHucNScQV6gE
p285
I5772
sVMfD5MBi7t04
p286
I1207
sVSvcePcUS7o0
p287
I618
sVSFFXvgfxwR8
p288
I3398
sVIG2OAktG1sg
p289
I974
sV2o-UqbPDUsU
p290
I4078
sV2foJnZYVlV0
p291
I1139
sV7Of6QPjUC_8
p292
I1691
sVe7oyBvDiDK0
p293
I314
sVo6gax_C4JdE
p294
I2345
sV2qlBKyVtBoE
p295
I259
sVrJFhXxU8ZbY
p296
I1021
sVqc5zuSQEkvY
p297
I4544
sVpgJjiJ1bmOU
p298
I446
sVRqy4ctv7btU
p299
I795
sVgQf_obQ26ys
p300
I1371
sVKrWZLdPDKG4
p301
I1361
sVzvxLWZxPK4k
p302
I3665
sVDrXl9oexhtU
p303
I1366
sVusDRtLJlMWA
p304
I864
sV2qaREhcDf_g
p305
I703
sVx2xVqg2YeYE
p306
I289
sVEuarttklBTQ
p307
I1508
sVLbc3NgcwKW0
p308
I2217
sVwcqGPIIs7cU
p309
I1757
sVhumrB2jsDvE
p310
I969
sV_A431gnLppI
p311
I790
sVCXNs_N0LzpI
p312
I1907
sVMsVUX5FtosI
p313
I2177
sV8RvCHyTPwGo
p314
I893
sVgvetVacSx78
p315
I1091
sVPy0lXdqZ_oY
p316
I8064
sVXgJ9wu8_4GA
p317
I11164
sVs9fg-HSJCIE
p318
I2612
sVvPeC_amQ1qk
p319
I207
sVORjkRNXKYYM
p320
I5788
sVTWBMr2_6t9M
p321
I1740
sVqLhViz2GXPY
p322
I1688
sVP7gqY_ELeO4
p323
I661
sVt5SE7iEK_uk
p324
I1335
sVW17p4USurwc
p325
I449
sVZlm6Cgp-gbw
p326
I1496
sVuVku0qSb5HI
p327
I7314
sVsPkbmIiMJl4
p328
I1422
sVRsSD42Vo1VE
p329
I518
sVvGUDfddLaBQ
p330
I1684
sVOMBuL2lK0Rc
p331
I269
sVxlhYXVbtfm8
p332
I2713
sVhXdvd4S0MK4
p333
I1064
sVmyz1OuIcjYk
p334
I3255
sV2UU9u_R8TLQ
p335
I750
sVItH2uc0-Cyg
p336
I1183
sVqVUObXOGBNU
p337
I2893
sV0jCph43umvs
p338
I1452
sVOHM2wUkCXCM
p339
I2535
sVeHUZCpm1VcU
p340
I711
sVp07MvtbP3u4
p341
I2681
sVRPhBJwusbbA
p342
I7542
sVsBXSNO0y6zw
p343
I1175
sVNs-7fb2dZWI
p344
I423
sVhODp9WMG5hA
p345
I2616
sV55QYOWgSe5o
p346
I482
sVRolP0x18dB8
p347
I1728
sV3CDziHFEN8I
p348
I169
sVV7WRaeYNlSM
p349
I911
sV0-wj1CNsg58
p350
I567
sVP3AZ0SkOSWg
p351
I561
sVGkeBF9FEjNo
p352
I4387
sV0TmXTuJA2gE
p353
I1556
sVICLWoSFPzQ8
p354
I1539
sVU12tagWZheg
p355
I1542
sVpx4m3grSO18
p356
I488
sVacRJklW78YU
p357
I827
sVJ_ixWZP-epo
p358
I1322
sVZ5A8E5PIPp8
p359
I3189
sVIzdy9Wm3tW8
p360
I3537
sVCvYOpSvDUPY
p361
I890
sVMHsQjJEyYm4
p362
I1560
sVgUcfoaNaDOI
p363
I2434
sVk-l1stHLD0A
p364
I2082
sVcyPUw8mEvnI
p365
I643
sVUnGJH8MJLe8
p366
I280
sVEAbfFeH_0_s
p367
I2530
sVCRV6vOk4Uk8
p368
I4491
sVBwmIHOhwfpo
p369
I2102
sVwAv1SSnpeZg
p370
I3807
sV30TNoEnRjfM
p371
I366
sVKApJMYY5cQI
p372
I780
sVBCLX53kJ8hM
p373
I1051
sVEhrLbrGvix0
p374
I651
sVpctWxzf-AG8
p375
I2398
sV301LOw4qvAk
p376
I3688
sVkED-tkNnZH8
p377
I1753
sV7no4RmE-i5Y
p378
I599
sVNxYPDM90sDo
p379
I3469
sVY7MW4SxD7Es
p380
I883
sVPokUupgTaiU
p381
I1053
sVpoKX3I8uOLc
p382
I3581
sVEKAmk0iMA9I
p383
I2485
sVyUSZOekCC0E
p384
I673
sVUpfwL0pSBXM
p385
I2613
sV0cUouUHkINc
p386
I2122
sVqbgu5ApDOX0
p387
I323
sVRghpbiY2WvI
p388
I947
sVKPPlNIcRrpc
p389
I2428
sVq6K31lTmCzM
p390
I252
sV8XVtX1Plw10
p391
I2384
sVrpo1YXl16Ws
p392
I6465
sV3DOzYUPgcSU
p393
I299
sVekvZupL_mhw
p394
I1253
sVhWl6vXY_Lkc
p395
I600
sVKVhfL0LgfCs
p396
I634
sVPKFkdYCh8w0
p397
I4992
sV9XSWRhhJDRw
p398
I750
sVZDPQzA4xNqE
p399
I1199
sVyG1GcyUhsm8
p400
I2441
sVXMc3drjrMso
p401
I5690
sVxLexXO6ZlNQ
p402
I1112
sVobbgbC9oouk
p403
I5424
sVYhRQGjhlEqk
p404
I1270
sVbVAinvdaHr8
p405
I1123
sVnLt78qIrwNg
p406
I6751
sVbrFgb2ORs_4
p407
I392
sVpokThu1x89U
p408
I1930
sVwgDZDd_JwnA
p409
I2501
sVqmyPoNeV-kQ
p410
I376
sVltJmxW0JWUA
p411
I2667
sVP_lJK2Urw4k
p412
I1647
sVv3QwqXPbYxU
p413
I1753
sVdR6XACFzSEQ
p414
I366
sVNKgtpY-CvJs
p415
I514
sVVEIyXkGozgw
p416
I3955
sVtVpCl7fV6eY
p417
I2245
sVJ4ozLpd5Ja8
p418
I495
sV8-sSJs0AAWw
p419
I5559
sVRQyQDtQnWo0
p420
I558
sVw1FezMIp5Ys
p421
I8315
sVlQv6LLDmBVk
p422
I871
sVB1F2exAyPmE
p423
I1019
sVgjlRy7wH_p4
p424
I3551
sVbM0G0IJG6QI
p425
I640
sVCRkFhGWVOkY
p426
I4094
sV7IvBaOhoemU
p427
I1781
sVC1apwH2ioXw
p428
I607
sVKbL_KARyafY
p429
I647
sVVHFFJ8iJk4A
p430
I718
sVh2R8fKVozNk
p431
I2423
sVK2cu6iyfepE
p432
I694
sVRjTMviEqqqQ
p433
I737
sVKXb0DJRD7GA
p434
I857
sV35zha8vntck
p435
I492
sVKvXMJ2ARk7U
p436
I142
sV_UrNRXVK3jk
p437
I1903
sVNdK6YghTyoI
p438
I1605
sVwYK1JXmC8Ow
p439
I359
sVy0BfGnzVj0g
p440
I7654
sVyPqOCkZGbRs
p441
I397
sVs3Y2q0kLkAk
p442
I6569
sVxCY9eEt751o
p443
I1630
sVQG4a_HeFLMQ
p444
I2135
sV0F5dZUj7SKE
p445
I851
sV51b2PbXOc4s
p446
I783
sVmSuZHBb5GFM
p447
I7094
sVU1D9KQIgxv0
p448
I215
sV_ahM-pUyl3I
p449
I2632
sV8RSYYWUQk5k
p450
I6261
sVY7mdmUp9N-0
p451
I978
sVLbRHdOtPN2M
p452
I1717
sVXiMcJmgLErM
p453
I2620
sVkJw_47ld9Jg
p454
I11177
sVdssFWQcLtJs
p455
I2639
sVkl99WDN5IOU
p456
I164
sV9fNgLOBOKJc
p457
I6481
sVCn8jWBIixuM
p458
I111
sVVbIb6g96sHc
p459
I2350
sV8a5cBeDSW7Y
p460
I10966
sVkQWrlP4qcQo
p461
I739
sVQ33UGXRg0tU
p462
I2470
sVOazMqSAhDIE
p463
I5544
sVja2OzBAgyrY
p464
I737
sVdJgDpwgYHk8
p465
I883
sVhipSAvCjSFY
p466
I2412
sVHWC-XhiLWX8
p467
I2004
sVwXD2Z63_L4Q
p468
I2353
sVZT7E8oit4Z8
p469
I16208
sVa6UFyX0Z8ys
p470
I904
sVjNstYH-QbF0
p471
I595
sVwPX2jUjY5ts
p472
I672
sVDnwNH7OIo2U
p473
I1864
sVsNQ9kCcow34
p474
I565
sVP0aQMeWec4o
p475
I3021
sVJlhUntGyxyc
p476
I1825
sVXs1sq9dZls8
p477
I465
sVNjKzbMSlqO4
p478
I253
sV2D3LzCHqRsI
p479
I2030
sVx6PI895aZ4k
p480
I607
sVOsy-5hAw3yY
p481
I1136
sVS9Of8fwo9fU
p482
I3095
sVGqgkhfrhUmo
p483
I1858
sVuluUF9wMNQ4
p484
I597
sVY0V3ZaV1AAE
p485
I3196
sVedFr0VHo-I0
p486
I3345
sVTF0Yhp21fNs
p487
I3411
sVrUMcTEWhoIQ
p488
I572
sViL_rEC6onv0
p489
I701
sVDifj_OtD0zo
p490
I746
sVDHO7_QVU914
p491
I1492
sVJZGpezzSWeE
p492
I3192
sV2BxLMvjg_kQ
p493
I1650
sV0X-EZrJE47g
p494
I2403
sVIEh20ngwJSc
p495
I985
sVPOL4bL5zq6M
p496
I1370
sVtBQzRl7xuWY
p497
I657
sVEkA39HWpsdU
p498
I377
sVkEsofSJ3obw
p499
I2526
sV0ScOEjwLf0w
p500
I593
sVDUE0oAvMgNs
p501
I4859
sVV25tfG6UVC8
p502
I1967
sV2bh9j94R0Ko
p503
I673
sVvi5UzA68XOA
p504
I2772
sVYVrCve-mS8k
p505
I751
sVH33jY6pJ4xY
p506
I1927
sVEUjcyQ1kiSI
p507
I1112
sV3dMoF9-pp6M
p508
I1016
sVsppMcVR25M0
p509
I237
sVTSZX_288GTg
p510
I4006
sVFw-itI3s3mg
p511
I2408
sVi01s-AsmYS4
p512
I460
sVnd4v8FUeBE4
p513
I1214
sVXxSyO7n4_Pk
p514
I2752
sVzdKnBJD1Hd8
p515
I13393
sVxpAJuBfR9os
p516
I1991
sV1KhpGXabXws
p517
I3758
sVyv6258LJDrk
p518
I1087
sVwhrbwnCSydY
p519
I618
sVHddFvumxeZ0
p520
I922
sVm3I07Uikd28
p521
I3939
sVEoJfd0hQg4E
p522
I651
sVnbCAhl_Ac9s
p523
I3147
sVF7_0A6Nq-O0
p524
I1309
sVRJYhtSd8g3A
p525
I1008
sVp25h1giIK0s
p526
I836
sVCoJhEbK_KSA
p527
I852
sV3rXMSJpIUPQ
p528
I2151
sV_XBJw3vMPu4
p529
I392
sV-HUkS8zNuuI
p530
I6394
sVmFlplW26-ok
p531
I943
sV49wCa7kPUfA
p532
I6173
sVkjw3eNk54do
p533
I753
sVzOd_DrIxm98
p534
I401
sV8ia3qkbpWh4
p535
I2699
sVlkRM44_bVWM
p536
I2737
sVHTrpcI3p5TQ
p537
I2812
sV8sYxHxeOPiA
p538
I2384
sVEySJO1DQfd8
p539
I1021
sV2no77-m6lec
p540
I5270
sVihgmv8CDWe0
p541
I3259
sVtursfGXGYOM
p542
I11967
sVfmoiGrlFeQs
p543
I4609
sViALJoN9qVFY
p544
I1344
sVPfYCzAIgNi8
p545
I8349
sVfh7Ud2qrkag
p546
I1123
sV-m6ac6w-r3o
p547
I1564
sVwXlaruZaZfY
p548
I1906
sV1AJMLfpNL74
p549
I3050
sVxoqnJtKj884
p550
I1080
sVRVkZg1SWAmk
p551
I5997
sVsaV4oQ3nByY
p552
I200
sVNH20Et-X3DE
p553
I1066
sVs5cGSoHcw4c
p554
I1336
sVUEjClDhsv7A
p555
I5542
sVlTX3M-g77ss
p556
I2402
sV-vmZoo8j-AM
p557
I881
sVIMTipSPwPM8
p558
I243
sVdVWcsoYrbus
p559
I6702
sV3rnUWyrVQL8
p560
I467
sVdQaKskO0dYM
p561
I873
sVi_eF25NGmdc
p562
I4620
sVc25miHDDTLQ
p563
I4203
sVUyLQdNqYDyU
p564
I2250
sVihAJrTVC-Jo
p565
I4282
sVFFVvR0hA9hU
p566
I1305
sVFDTNgSk_xgs
p567
I2953
sVZynHRhC6ErU
p568
I2735
sVr6Nzke3USeU
p569
I2065
sVOJkWStU6d6I
p570
I1889
sVRB-rJ17zQE4
p571
I6137
sVZjsb62fxZxY
p572
I954
sVhsN11RA_NWw
p573
I2867
sVqXyOFXxK47k
p574
I576
sVGEpN09uhO0Y
p575
I1492
sVgNXj6fM3nSw
p576
I1042
sVk7J1uE70XEQ
p577
I1185
sVUMMRyQqtgeM
p578
I3702
sVFmKqGfuYVGs
p579
I1250
sVjKaJNFTd-iM
p580
I299
sVtCH-vCUe8V4
p581
I686
sVT-52uE8WbqE
p582
I562
sVFV6qwSZzgmQ
p583
I2541
sVfyfxp_WksVY
p584
I3471
sVdERGyzuwwsc
p585
I7413
sVs0nxFx8fiAA
p586
I494
sVsWCiHCrDoNU
p587
I318
sVcecA5vuMyt8
p588
I835
sVQTFDY2qlzk4
p589
I1052
sV19IeCfVdkDM
p590
I489
sViio9qsN_g74
p591
I1020
sVN2HDrhdjTHA
p592
I1609
sVCqgIxUF_A0I
p593
I1305
sVVlGDEwqTzsE
p594
I1253
sVES1T__LeoOI
p595
I1491
sV1aiVdge_vd8
p596
I441
sVr5p3ILDP5To
p597
I1505
sVVAUR8TxrMmk
p598
I5272
sVI4N0vaBehxs
p599
I292
sViqxjbkXPBic
p600
I903
sVdcN8dq2HjrM
p601
I15363
sV38o_Kk_Qr7A
p602
I4123
sVD4CXjP66p04
p603
I4103
sVOQjZoNLsZDI
p604
I6145
sVdFqjNiSAOos
p605
I487
sV3jE7hZCLF1g
p606
I1147
sVysiQnIODs3A
p607
I509
sVpeEHmQ8swak
p608
I130
sVhgxiY6HM40w
p609
I1662
sVcyxD89NmBoo
p610
I799
sV8OZC1Xm1VAQ
p611
I827
sVD3CD2KTOmqA
p612
I2376
sVCix2LWJh2TE
p613
I2170
sV1mjoo_XQVZI
p614
I1625
sVRdPW9FDOlvo
p615
I432
sVmF-clGEGZsg
p616
I776
sVIXztbxubTHg
p617
I895
sVXDkEY7iZe64
p618
I2210
sV1vCnPYalC5k
p619
I1417
sV2l5k3SbT_Dc
p620
I798
sVZI5aGoVYVSw
p621
I548
sVNdWO9eSN-bA
p622
I1204
sV3lsFCcZM46k
p623
I1408
sVFiLnYJKIT1c
p624
I2305
sV1GHa84m3U_I
p625
I556
sVRxzNifl5KVk
p626
I591
sVxydOJrfY5To
p627
I1499
sVo2NQdEF6Pm4
p628
I1540
sVGO8FAlb3HwA
p629
I1244
sVBsY9bnhwYA4
p630
I5468
sV1EdbDSHHXKM
p631
I2972
sVj_7K7X6OCjY
p632
I6842
sVOQaP5dgs1Ws
p633
I4521
sVECR2EpqNncE
p634
I4088
sVcMExBX3jX28
p635
I3142
sVfQ2XH2Jvbys
p636
I730
sVKZPapLgGByQ
p637
I7385
sVlhuhbymR5PQ
p638
I847
sVJpscO3UvTeE
p639
I6630
sVfOJ1SRQugko
p640
I661
sVwkvdT8IDRng
p641
I1467
sVgoRA2B1KpVw
p642
I1812
sVf6RdpbBvkhw
p643
I4934
sVfaLAs5T3e-s
p644
I2399
sV1ptvHLoDv10
p645
I1223
sVfcbXV7y_pMU
p646
I2322
sV7UEgWPvPibg
p647
I1975
sV0PqXAWG-SF0
p648
I499
sVxwsByUl1Uf8
p649
I2452
sVSAPc_zZm4sw
p650
I638
sVqFUK4Xgz8M8
p651
I1413
sV-nziyAauR7I
p652
I231
sVge-zP2cfkWI
p653
I373
sVqPIci5ZdCwM
p654
I260
sVgOrqzISrkFU
p655
I1954
sVNTNt1-LiHU4
p656
I620
sVCjHnLSxS6s8
p657
I594
sVMItcOjdpKf8
p658
I3215
sV0LDtWDgyVLY
p659
I2113
sVPMy3MbtOrQo
p660
I1181
sVV60IQNmesWg
p661
I964
sVR8b6wcXnhMw
p662
I1082
sVo8Fw91xxo-Y
p663
I3270
sVuCXs-G3BOlc
p664
I191
sVVANN8kG7f8g
p665
I1096
sVfDCAYCJF-eE
p666
I4848
sV8IxxiK34yTI
p667
I482
sVWogHx3mpxeE
p668
I6372
sVu6tv3MnYHng
p669
I2939
sVLo1AMhT7fog
p670
I2152
sV8aj4cTEO3Do
p671
I2792
sVj2CxwZu_FwA
p672
I2850
sVswW9rLuQmQg
p673
I1084
sVsAKTOV-u4rw
p674
I1995
sVLFo3S59iCVc
p675
I4861
sVh-ne3IibOc0
p676
I1169
sV-PuJSys8oMk
p677
I350
sVG4IJemmjjME
p678
I96
sVx2ZfjBDJrOo
p679
I787
sVJBVuCAYkSG4
p680
I1028
sVzArabGjIjI4
p681
I579
sVk44oCRT3hsw
p682
I1793
sV0yT5fffr4kg
p683
I615
sVn3Z_ZJ0cBB4
p684
I946
sVyil9j-b0-LA
p685
I2618
sV-U4i44fVZJE
p686
I578
sVBZuEl6TWJec
p687
I5438
sV7oObGcD8FPo
p688
I4413
sVj1Gi5eNp9Hg
p689
I8060
sVSfaW_l1zzo4
p690
I2245
sVhsHTArGpYgM
p691
I348
sVPGARFyLHEk0
p692
I797
sVK53wbaZ6_PU
p693
I125
sVFH39TpRiKok
p694
I10772
sVKzGgN0HiYgc
p695
I9541
sVNkrdZLynaq0
p696
I5732
sVP_ig1SSWGMo
p697
I2655
sVPakHrwXe-Fg
p698
I3087
sVHHacsC0feKE
p699
I3871
sV3wwdOUMQ-cQ
p700
I828
sVxFIjw1ZLWJo
p701
I1661
sVRwdEuN3M9TM
p702
I3186
sVOeW0lPZ7e8w
p703
I2955
sVGe4H3Jd5KOI
p704
I3716
sVu_omyCReuno
p705
I688
sVElmlEbJYQ6M
p706
I1238
sVROTrLpQSIuY
p707
I1176
sVcmw_baJ6uZo
p708
I1544
sVwLjP4WhU3kg
p709
I960
sVBwTvpl2OCC0
p710
I1974
sVZNU94ztBz8E
p711
I874
sV890ufodP_6Q
p712
I1012
sVd0qhfIhxk4U
p713
I902
sVOfY4mmKqA1k
p714
I5117
sVmXQU2iIx9Mk
p715
I620
sVVn4kM7Wsf-s
p716
I566
sVyYrFMIkDMjg
p717
I2235
sV03OSTDJYfRc
p718
I2271
sVkRBgKNA9ZY4
p719
I1746
sVZA_YkcL-ddA
p720
I1498
sVgOSJ5zfeKWk
p721
I1632
sVTs5ae-p3QQE
p722
I3908
sVx8r_Jp57qK4
p723
I454
sVk-qnIaURFl0
p724
I764
sVyvho6HQpJk8
p725
I1906
sVYUkFWijWYbY
p726
I4564
sVGDlbLVh6MXE
p727
I689
sVMD-fYXsGEk8
p728
I791
sVIVYPClJGZwA
p729
I623
sVEoaC28z-HUI
p730
I2463
sVs_RdJo-jZ9A
p731
I4692
sVXPxdy7LQuJs
p732
I682
sVRQ30SNDsOvE
p733
I167
sVuaCz1h6aZ5A
p734
I771
sVB5uwPAvOHIQ
p735
I1611
sVRKEVEF9TaLQ
p736
I1298
sV7Ysnt3jv0hE
p737
I1097
sVlmuGM8nyB6s
p738
I2423
sVyXmhBXSx2B8
p739
I664
sVl2oypj6LL2g
p740
I6675
sVSxL_MrbJihc
p741
I677
sVeGzUA-XBXTc
p742
I4415
sVv5SIp511c1A
p743
I2613
sVJ-EflCtd_Hw
p744
I16780
sV2RN9AvMY8AE
p745
I627
sVxu9GiG8FKOw
p746
I2186
sViYD58Hr51YY
p747
I610
sV2aDKQmNHWsI
p748
I1667
sVE8nHqjYrgFM
p749
I367
sVv4l0wVaymjw
p750
I921
sV1DMqa2jDpqA
p751
I621
sVo9kNPjALbPs
p752
I1541
sVjybhAlgc_-k
p753
I950
sVIeKZsT-lWcE
p754
I3954
sVNmkPmTLTKYM
p755
I5465
sVvDhOQBWALI8
p756
I493
sV8YFqWepY6i0
p757
I6662
sVTwiTvozcZq8
p758
I1084
sVsCBqyH_AhAE
p759
I2234
sVs69mHY7tESg
p760
I400
sVxEdRSFsy7aA
p761
I1444
sVVqbxaj1434M
p762
I732
sVRukB9RBP57o
p763
I240
sVSsfM_f12kVY
p764
I1192
sVNhDWYDfwY1g
p765
I6438
sVkLwV6_sdgpE
p766
I1477
sV3ctOO8RZJjM
p767
I1431
sVp5X4nuj-dhg
p768
I949
sVLyPC1OLvU2M
p769
I1453
sVPhuh5aS6soA
p770
I514
sV_zlExHci85Q
p771
I2196
sV2VmS1tBObak
p772
I2443
sV00Nh3CRNDVE
p773
I1341
sVWpQhOiGtcOQ
p774
I650
sVVkF5gOrh2XA
p775
I1374
sVLcIRuux5uLg
p776
I555
sVK8iu4DUqdzY
p777
I5176
sVt8SInZQY_n4
p778
I2986
sVKFG-5eMxQA8
p779
I4362
sVjvt8CKGeS90
p780
I3512
sVUPnJ6yx7d_Q
p781
I1698
sV0pYTU7Zfbq0
p782
I973
sV-WwdZu0nbg8
p783
I1846
sVoLIkmz3BvtI
p784
I4642
sVYQNvpMY_efU
p785
I517
sVR_ODjPkCiNw
p786
I965
sVFEDpvLa0XbU
p787
I696
sVEEDIbd5cSVs
p788
I4438
sVBIOjELQRYFA
p789
I1214
sVKA7nfbJ7a-k
p790
I391
sVgSp_8-qmPSA
p791
I5635
sVWGwbDz2yET4
p792
I1839
sVfZ9fOnVSFag
p793
I2543
sVOkNSc7kh5Po
p794
I2914
sVt6P4f_mkfbE
p795
I1262
sV6XwynXXd1bE
p796
I1087
sVZFCJPXTZOGE
p797
I1324
sV77iycl3MpyM
p798
I2101
sVgw5D2csfXrg
p799
I1636
sVQlvTsGIyXJA
p800
I314
sVslvTdPwPWO8
p801
I2699
sVPjbhDEZLlIQ
p802
I940
sVOO9oODLZWW8
p803
I6315
sVgwlQU_vO0v0
p804
I992
sVQvljeBbjpY8
p805
I2524
sVJl9kwVQNUmc
p806
I1261
sVsQedvovfQdc
p807
I3461
sVZqMearEYuRE
p808
I2581
sVYrNcDm8sB2Q
p809
I1965
sVmocSXBCKgQc
p810
I988
sVn-uozMZPtxM
p811
I776
sVhLGuCr2zfUU
p812
I8278
sVZ5LDkHve3VU
p813
I478
sVEVKz4sgCaQM
p814
I3699
sVped6clTt6qU
p815
I2341
sV-jRgxRLkTIA
p816
I6866
sVC7lr-WXDkDc
p817
I289
sVa6yF7j3YIsA
p818
I643
sVw4qnAS6C0WA
p819
I2433
sVl4jyUXI4-Bo
p820
I1358
sV-4pVliNOVBc
p821
I1295
sVh5I8clR4oBg
p822
I3654
sV8XFsAeYANNQ
p823
I920
sV09TB9IoSpXQ
p824
I583
sVxxLqE0Deloc
p825
I6523
sVtuuKK_Bzo3c
p826
I7678
sVit6c9LBWNvc
p827
I2258
sVGpNRFeTP4ow
p828
I3014
sVdEGtkT1OmZk
p829
I3061
sVp1eh2B4BnV0
p830
I890
sV0xaE51Fkl9s
p831
I606
sVkFn8Eh1UXZE
p832
I2143
sVr5VMio2JFvE
p833
I1731
sVLm_DEVOKm7M
p834
I6684
sVrZMPI9n6vT4
p835
I1417
sVmonFBsSk5u4
p836
I379
sViwGpa5sSYi4
p837
I652
sVPUdysCHGhY8
p838
I167
sV1h1Xo42wj_M
p839
I2211
sVbWljMOeAT_g
p840
I1944
sV86OuaW13rEg
p841
I875
sVk5tiYqzvuoc
p842
I1093
sVZ6-GtFgG-mk
p843
I764
sV1PnSatLeG0s
p844
I3876
sVIfvhXTgU4Og
p845
I239
sV2q6Y4jS_eLY
p846
I6592
sVL99_EAcxcQQ
p847
I403
sVWD9jp5iEL4s
p848
I1965
sVICCBG64ZKas
p849
I9415
sVLihr7Tw3TWE
p850
I447
sVqbC8CAt2jng
p851
I2005
sVR2tK9Av-X-Y
p852
I945
sVpfudxeoVhoY
p853
I70
sVYH5X83r_Cm8
p854
I1434
sVKvHmV57xHiU
p855
I1819
sVl0tfDbR7WzA
p856
I6147
sVfj80l1GYyKU
p857
I1069
sVKS57qs5E4FM
p858
I782
sVyv-DdBWhmP0
p859
I6717
sVEGwNoEi6z8Y
p860
I3183
sVhWvE6Rw5kp4
p861
I1319
sVGY0m4tvrud4
p862
I1526
sVfJJJCAHqj5Q
p863
I157
sVFjJZFG33WHc
p864
I13893
sVbY2w_xCTMC4
p865
I2341
sVmgFnUnSQ6bI
p866
I752
sVcO7-YgMF2y4
p867
I785
sV3C2JnQFnzcc
p868
I896
sVSARVshe6ZZA
p869
I13348
sVfD9rZfR0Foc
p870
I661
sVySG5eu_qKzY
p871
I2198
sVKhbcOgEwxbY
p872
I2602
sV3Ev6jXmDzHU
p873
I882
sVR9wzyMN6Tzo
p874
I902
sVCDFQ8Vk6zTc
p875
I1034
sVJxWj5wzUacw
p876
I785
sV0Upe9FK7Qk4
p877
I1566
sVZGefGeUks4E
p878
I116
sV_abBePY3e0w
p879
I208
sVznF9-Kx6P0M
p880
I1629
sVyXNBfmUpErI
p881
I876
sVH069QPCu1KI
p882
I1565
sVJJ09AwqVUWM
p883
I1043
sV0ZMPyxlQTpU
p884
I735
sV0c3EDq4VzRY
p885
I957
sV-qFg_TAe9H0
p886
I1667
sVoCTkVfICKMY
p887
I1720
sVKCILAp44Qg4
p888
I460
sVrPTNn6q20lU
p889
I2794
sVvBGjn6tJNeg
p890
I337
sVIQyn4OS44Wc
p891
I5299
sV0Dj3EIzAHGI
p892
I984
sVL4siEclLPI4
p893
I2178
sVwJ6ozImCaVI
p894
I80
sV3JgLi7Bujnk
p895
I236
sVby2zD4OOIzY
p896
I1798
sVSs9j3O4XtgM
p897
I7869
sVQ_XLHD0Ux34
p898
I1120
sVvqSflLeunqE
p899
I766
sVpCdbBhHM04g
p900
I607
sVFVdJBa1BJSY
p901
I1166
sVcXlFUvrzawk
p902
I94
sV_v1TYg0n5Hg
p903
I1436
sVlObxpxl0cuw
p904
I1195
sVVPn_gdc6TTw
p905
I729
sV2cFHC2kPNwU
p906
I1385
sVJrLF5S-GE1o
p907
I4990
sVKRb05WsbiN8
p908
I3482
sVGfCZbr0LC2I
p909
I862
sVfiQMTFNpUSE
p910
I1373
sVW0fCrUopzMI
p911
I503
sVwC_SEaCthC8
p912
I543
sVTd5NxKNj9s4
p913
I2465
sVjCBde9OLZuQ
p914
I2696
sVOII1TTw-Ank
p915
I1298
sVbokMaUVQO40
p916
I161
sVnj4rXl0LjxM
p917
I2830
sVGR5R3W0nBlw
p918
I11038
sVqzcmEeyljoM
p919
I2527
sVh5DrbwhWiKc
p920
I5152
sVrWhvhlnFAMg
p921
I13472
sVp1uiNEuVgOc
p922
I1300
sVwTurIor6ixU
p923
I1020
sVwd4kZi0Z5Dw
p924
I2784
sVt7W7CKZOXe0
p925
I2185
sVZCqeEdonGnE
p926
I6711
sVbqvjRmRZdEQ
p927
I2200
sV8MUmFohBVc4
p928
I622
sVLUnmhFNXvDA
p929
I6855
sVSSQLxhn-vp0
p930
I3244
sVwjgHOHQVfso
p931
I2159
sVXUPlTWIeoQA
p932
I537
sVJogW__5e0Kc
p933
I4358
sVnPY0mBq0cJE
p934
I1339
sVb-IdCvVRZ0U
p935
I478
sVNq8S45LIfg8
p936
I735
sVMqwQKn2WALU
p937
I2254
sVzCcm07Jimig
p938
I8731
sVIO8q89docps
p939
I2325
sVNG-0YiAt254
p940
I8696
sVwIKWT2xOPCM
p941
I543
sVrMeHNDDazs8
p942
I6285
sV3eouUdyvOk8
p943
I1022
sVqwwIMqV8kq0
p944
I938
sVZHIHBkUIcIE
p945
I929
sVUsJiEfiEYKs
p946
I336
sVhKB8VCkyAZQ
p947
I232
sVt65WgbooJfc
p948
I1228
sVYsjt9e2orrk
p949
I9259
sVdljMScfkK0k
p950
I1062
sV51-EIHS-KpE
p951
I1476
sV8cTAR2Frfsg
p952
I1262
sVfD9g4HlbF44
p953
I391
sVyzNq-pmX-Bc
p954
I1062
sVqwJuanD_5sY
p955
I2517
sVhznX4U9B4tE
p956
I1087
sVcOKmbk1S7Hs
p957
I1984
sVxbfRUPamlPQ
p958
I1969
sVKZPPjaqqIdY
p959
I5572
sVt2FtZWTG0z8
p960
I1778
sVU1gS0Dfngz8
p961
I1126
sV3dJYwZhXWok
p962
I3877
sVO1apKGWOI5g
p963
I1258
sV1jm-VEgQYH8
p964
I1464
sVKiDSQeoFJoE
p965
I1138
sV2QuJjTe2S4g
p966
I1737
sVNtYDtuZI3ew
p967
I1450
sVbsiQ2Jwy6j8
p968
I747
sVNB4jyAnAfbY
p969
I363
sVmYTNremXoVA
p970
I13060
sVLIC22hKkiIk
p971
I2381
sVcOt0DgRZXhA
p972
I3933
sVLFYa2q5pxjQ
p973
I3548
sV-DSmrOohHP4
p974
I1934
sVKjMy7QK-1Ig
p975
I5267
sVBOXgja0LS2k
p976
I2581
sVVw_M1hMPZYA
p977
I837
sVDMt7XgUORHg
p978
I4266
sVTiGdnKooOpQ
p979
I952
sV-kdahZGrC7k
p980
I4252
sVrny9kD02xps
p981
I6588
sVmqBkWP24Nvk
p982
I512
sVo0dw1OFgJ5M
p983
I640
sVtzhdHkYeO2E
p984
I2280
sVK8DPVxNUUfY
p985
I1104
sVJtNcEyQUPmo
p986
I1226
sVGwc4dmqIl78
p987
I856
sV0Rf65QnxhxI
p988
I8664
sVLzZYrYs1UXM
p989
I2601
sVrimJtnxt0t8
p990
I476
sVH_FsYWoLsTU
p991
I828
sVq91cDJAoj7c
p992
I339
sVGgc9ctRp4gI
p993
I1090
sVwpGjRG8fS_s
p994
I944
sVDzcvgy5zDl8
p995
I405
sVUnbPDoP0Lv0
p996
I966
sVRXZfPKBsbis
p997
I6337
sVN6Fr9NBk-sU
p998
I3406
sVcwK5uq80MZ8
p999
I2329
sVj68HNX7_Uc0
p1000
I3413
sVlxjB0qUMcCo
p1001
I5243
sV1HSvIXFg9GU
p1002
I3099
sVgtb8c2Y1P_A
p1003
I575
sVwFtcETbxa5I
p1004
I1519
sV859t0crzD8M
p1005
I837
sVUkFjwz_sN6E
p1006
I297
sVFrLibF4ZhgI
p1007
I1518
sVD73g2LjClfY
p1008
I835
sVlvi2g9-CCZ8
p1009
I1689
sVL-hlmY_5uEk
p1010
I1470
sVXvmdV5MP2Yo
p1011
I1179
sVmFdNLTpIK_s
p1012
I345
sVgCR7ZkJL700
p1013
I393
sVOAVEevUZvzk
p1014
I7731
sVOSAhZT2TX-g
p1015
I530
sVEaKthg7gdPs
p1016
I157
sVMG9i-4uTbec
p1017
I714
sVGgsl1sAYrGA
p1018
I2041
sVupU8Hw_dNi8
p1019
I2230
sVYnf-f7qVSaM
p1020
I588
sVhWHNVUBRQ7s
p1021
I1814
sVCNSREFm9vgY
p1022
I1844
sVOwbkBKhUggc
p1023
I7175
sVp6ZcMAg-SzI
p1024
I3619
sVWnjNQoi7zUA
p1025
I723
sVU3oe9qVFuTw
p1026
I893
sVsed4TNVOVrk
p1027
I1020
sVRpbA-u8Kg2M
p1028
I377
sV0T7lSnM7sOM
p1029
I2884
sVy1pWjwOTQeI
p1030
I233
sVjmPIVb6M1K4
p1031
I1067
sVtUarPCHJL8M
p1032
I802
sVdeldLCbmdcg
p1033
I1533
sVIs1becqUJK0
p1034
I538
sVpD3fd3MzWLU
p1035
I1238
sV8i9HCXTj7kM
p1036
I4897
sVkpgEAUplxE4
p1037
I2388
sVzPcCC8yGKZI
p1038
I240
sVwbPuDgAhTvA
p1039
I1314
sVxYMubMQ_O4s
p1040
I640
sVVSggG45Ghc8
p1041
I5197
sVbfUG4vt0sOE
p1042
I1999
sVvN1RTKsHCn8
p1043
I609
sVZfGLHVvqHQ4
p1044
I1074
sVHmzuAEIIcvU
p1045
I4839
sVpOJxfZCBQ_s
p1046
I727
sVc8IKr2p--Rk
p1047
I673
sV7W0puiceapw
p1048
I3412
sVU6V2du66Daw
p1049
I5575
sVG_j6SpTfVxw
p1050
I4946
sVDLoaReuPieY
p1051
I693
sVCiisSny8jnc
p1052
I1287
sVLOC5YRzj1oQ
p1053
I1942
sV1eTXKB8ecm4
p1054
I4373
sVvvVpVnlysIg
p1055
I318
sVhiBtzhTDakI
p1056
I2077
sVd2KftDRDWTM
p1057
I1584
sVgRTLdSGYidg
p1058
I2655
sVUSkRCcOcf5Y
p1059
I6086
sVl7QXr1e_fX0
p1060
I10221
sVcHAHoIdSNXw
p1061
I912
sVz6jO1jqhMns
p1062
I2003
sVuZIBN_pIklc
p1063
I4071
sVCci0isVwpjs
p1064
I2048
sVEO2aih9sz3Q
p1065
I2818
sVDcLYEUd6jnI
p1066
I1892
sVqWev-2TD8TY
p1067
I453
sVGN0-N3-_8S4
p1068
I743
sVI9KsgAReJBE
p1069
I1493
sVmzTfbX0EycI
p1070
I534
sVqSpfxlvTwPM
p1071
I2557
sV0Tv4Bcxvg0I
p1072
I3403
sVBzMY1uriYoE
p1073
I1849
sVrQeuZoA2urs
p1074
I627
sVKjHY3Q1EWZs
p1075
I869
sVVXEYSTyXp2Y
p1076
I895
sVgLDdwAC72jA
p1077
I2463
sVm_FXqq3kax4
p1078
I1560
sVXFHUfTPhnDw
p1079
I1029
sVYG_sxNfP738
p1080
I1126
sV2aM0xbKbHFg
p1081
I1035
sV00b6k17zCTw
p1082
I120
sVgOLggJRcT54
p1083
I5437
sVBtWIBc08vWk
p1084
I894
sViwM4qyZT-Ms
p1085
I341
sVuxcdrjDVtFc
p1086
I239
sVZP0ZrkzhW2A
p1087
I1924
sVREiIGuyiBbk
p1088
I4184
sVLI2dsVV4F6s
p1089
I1183
sVE0Q2UuTo7XY
p1090
I2471
sVr_gM5SHfmSk
p1091
I2400
sVS8CA_93k4TU
p1092
I995
sVRxN88qRdNoY
p1093
I2270
sV_D00FME5t4I
p1094
I2100
sVqHKa1cXaxBY
p1095
I1198
sVXsAQe6hTvvw
p1096
I1532
sVc1zgGEr15S4
p1097
I1058
sVkyYKOQJT0ps
p1098
I226
sVzWg1-iLae9w
p1099
I2277
sVuS9kBB47z8M
p1100
I2417
sVis35NHLOa1w
p1101
I10182
sVUqs6PWyEJbg
p1102
I6427
sVmibNLhGcdEs
p1103
I861
sVEm5YJuytkXw
p1104
I11492
sVw6GNckVh6O0
p1105
I4202
sVwV8v4-a64pA
p1106
I246
sVx5CTQsh7f70
p1107
I704
sVxIXroVaUnX8
p1108
I3074
sVk0W-p3M-MUI
p1109
I2265
sVG2JkGDDNytk
p1110
I13466
sVH7mgQC6nlJ8
p1111
I1139
sVZAxNPgPGrYw
p1112
I124
sVdEvw3sZPriQ
p1113
I1787
sVvD6QQp7GGOM
p1114
I704
sVXvIf_0gEVxU
p1115
I471
sVtXi1t1FgVCM
p1116
I1394
sV_CfiFrU0SOk
p1117
I984
sVOpjZ9hU5_U4
p1118
I3013
sVdMU2fdLvrxo
p1119
I1707
sVxa61tH5UyFA
p1120
I1912
sVR08kvG-EVYE
p1121
I487
sVcMkGbmChi34
p1122
I12317
sVhWuAHIEpb8g
p1123
I1824
sV0-NDMJm9XXo
p1124
I6505
sVFVtVnapoQng
p1125
I3500
sVMtRUhA5qKFU
p1126
I643
sVoN16ZHEz9XQ
p1127
I137
sVq_k1lFhHohc
p1128
I1641
sVQUdmnkQIgdM
p1129
I2511
sVMljztSg393Q
p1130
I1397
sVjsxQVaZBJ44
p1131
I2048
sVyNiW6L9Z6rY
p1132
I2995
sVJfAadBArMQw
p1133
I9861
sVT4Rp1jLLc7k
p1134
I465
sV-lCErNwhLbg
p1135
I1693
sVWMQ9_8czCsY
p1136
I19012
sVwUKfO0MamQ4
p1137
I767
sVjTF346akSt4
p1138
I1288
sVOB1uqvJ3OTQ
p1139
I1227
sVqXKIVBgmUUc
p1140
I376
sVXwoITmjBtwA
p1141
I613
sVOFIissbsxbA
p1142
I159
sVldp-W_0aujU
p1143
I3530
sVfLLTa_sVmsQ
p1144
I3583
sVKjV4jDJY0rg
p1145
I741
sVuNa5W9_e1ws
p1146
I688
sVU-9WLulLdTU
p1147
I2239
sVEu_2mlsReIs
p1148
I231
sVMEkv8QBVKoI
p1149
I1199
sViwIpltP6xR0
p1150
I337
sVP-08cBSZYQU
p1151
I2977
sV-pJnIwdOAc8
p1152
I773
sVGdZRrJK8Prk
p1153
I1545
sVo1mIJkV5J4E
p1154
I9907
sVcBdzCiP1I68
p1155
I2996
sVUy61xTL4TuA
p1156
I704
sV-Qz4Roac-JQ
p1157
I1885
sVkt_gwCzWnQo
p1158
I4539
sV0pwtpPm-uxU
p1159
I1361
sVwbonFpQ6Fpo
p1160
I9840
sVqMY3gifTJHM
p1161
I3699
sVwhSx5syYvEU
p1162
I2111
sV3fOnOGBU5Kc
p1163
I8470
sVwktI9am3ShI
p1164
I373
sVpbh6OZT1gvg
p1165
I666
sVeOF_EO3tuiU
p1166
I1298
sVuthBd7U8nR4
p1167
I1263
sVLq7AjWDaY3g
p1168
I1736
sVhF3aLuBGNFU
p1169
I751
sVbwvTH4AkAsg
p1170
I504
sVHZv7N0IhKE4
p1171
I11385
sVN2Hs-89x1Z4
p1172
I5375
sVcrgU5JKoqrM
p1173
I3862
sVDu-xiOT7bB0
p1174
I3685
sVOqIn7sv4uzY
p1175
I2595
sVLkEB6FmMvf8
p1176
I110
sVFeE6K-id5u0
p1177
I902
sV377X1BN22cY
p1178
I302
sVR2kRFSRY_hU
p1179
I1977
sVp9a_LCkKw_0
p1180
I1092
sVInqRiGB1laY
p1181
I1000
sVEwHI6K9L57I
p1182
I1142
sVsfZzNklSu98
p1183
I720
sV092BG73R0ak
p1184
I3602
sVnHrv99M8T9Y
p1185
I1595
sVCGrx8wmTOA8
p1186
I2400
sVtg1XXSlPyl4
p1187
I934
sVbC5vddMdMs4
p1188
I3251
sVBuByqMa3EI0
p1189
I4593
sV-mrg30x9fDQ
p1190
I550
sVRCG4ZIRSAkw
p1191
I558
sVq8PwU6t9aro
p1192
I651
sVQBYw0IQngfI
p1193
I738
sVqIhJwxbijoM
p1194
I2795
sV7aqUIV9CZuY
p1195
I1286
sVIl3R3FCKSjU
p1196
I3230
sV2tdPnwokCIY
p1197
I886
sVR6vchhRAjvw
p1198
I238
sVGDaH0dEp6qE
p1199
I469
sVeFPJPK01IiQ
p1200
I4580
sVvxmkGXzsp4A
p1201
I1692
sVdprI_WyqJxI
p1202
I2328
sVi4iagXWczfE
p1203
I2820
sVEuSZMuQRjBc
p1204
I421
sVFYkaQwnRK5s
p1205
I2226
sVbuoO2pNbRNo
p1206
I1647
sVyk8r4HCNfCY
p1207
I769
sVKwdK_OdGrus
p1208
I3027
sVIoZx5NDyuNI
p1209
I1468
sVjuhGreZhzr4
p1210
I6883
sVRKnLleihRb4
p1211
I754
sVQ9we9d9Lfuo
p1212
I1005
sVxyiKDh4obb0
p1213
I2010
sVHZal1PztRlk
p1214
I722
sVLZ804N9ckr8
p1215
I3897
sVT2OzDJ8qa3E
p1216
I4228
sVBPrWfNG9o5w
p1217
I931
sVyu40HFcgzwM
p1218
I1068
sVdYDMX4urO5U
p1219
I427
sVvC-4ylmwc1A
p1220
I2082
sVyj0n6raA5fM
p1221
I163
sV2UgC83UZBAc
p1222
I1016
sVb_dcjvR-uIs
p1223
I1031
sVBTI_krvtGIQ
p1224
I5647
sV1szFX8polKo
p1225
I3307
sVDWQfYM9zBic
p1226
I975
sVXmbcgQogL_o
p1227
I5085
sVXIXvAve_34k
p1228
I3919
sVY4PLMTFQUOU
p1229
I1269
sVeTEVBTxtTFI
p1230
I679
sVhpFrtwnQMfw
p1231
I350
sVwMe6vwJAEbk
p1232
I3144
sVyB8bYiEdVwM
p1233
I1709
sVj4tY2PK8cyk
p1234
I1066
sVUp7PVX6X3ZE
p1235
I357
sVR-y-YNGUTmA
p1236
I1532
sVsNS1R66a0Bg
p1237
I163
sVVZUW4kKnQIE
p1238
I6487
sVnbowCRMuL_w
p1239
I1004
sVen0dbwOPspM
p1240
I422
sVU1oHqUs0LgQ
p1241
I2801
sVRc2g94MfvlY
p1242
I13171
sVDAojST9-dTM
p1243
I4046
sViHxMZNFGI8Y
p1244
I195
sVde3a5vRyBrg
p1245
I671
sVd5epenHG0sE
p1246
I1843
sV0276tzdXxgk
p1247
I11599
sVjle7GqR9hiU
p1248
I292
sVkdoo1XGE2EI
p1249
I1618
sVDplCEwFqyb4
p1250
I1127
sV7jjGtpEMLKg
p1251
I9522
sVMTuFkYpQuuc
p1252
I15534
sV-l38EuwPz_o
p1253
I3543
sV7Y7yd1H4sd0
p1254
I3306
sVnYypy0pezdI
p1255
I4161
sVayVgJU4-X4E
p1256
I2079
sVOqmFit8xR6I
p1257
I181
sVOjQU8yjsAcs
p1258
I238
sV17pdZNQSr1c
p1259
I1258
sV-k9a8MS8g0g
p1260
I7391
sVTHNzESRsTtM
p1261
I449
sVQPzlyeo9VB0
p1262
I622
sV16PCLyl_H48
p1263
I2178
sVXOYkOkMCtAQ
p1264
I3500
sVW1lvBcHtSB8
p1265
I867
sVPFnz1Li6BIo
p1266
I6713
sV48Si6W1aVXg
p1267
I6194
sVR8OgDCvBMDs
p1268
I549
sVkPNDXzKeL40
p1269
I1062
sVZhPYaehbrjg
p1270
I1832
sV9kuz7UCCkwY
p1271
I2309
sVtr209GZRuCo
p1272
I139
sVQvovSK5Q-4A
p1273
I951
sVs0GXQR9RhSw
p1274
I986
sVsY3Ne865Kd0
p1275
I1202
sVsztHSvpGfYQ
p1276
I952
sVWU6jYnz9VD4
p1277
I187
sVFaJ3LHglhjI
p1278
I1704
sVU2bWdlt8n0s
p1279
I101
sVZC08OPw06c8
p1280
I1971
sVwZtYRqQ1H6A
p1281
I1645
sVgJXcggOYGVg
p1282
I1179
sVZHWOqnFUWz8
p1283
I2865
sVwbJ6zYnT4d4
p1284
I1058
sVuqpQbVvc_xY
p1285
I697
sVmygfW2wm4zw
p1286
I884
sVQ95GDNGFiiw
p1287
I6133
sVuiaG5SYSCgc
p1288
I2052
sVHMeeEflLNuM
p1289
I3136
sVFY1ZozztE2g
p1290
I1507
sVp6-Y1oZbygM
p1291
I1908
sVRsR9Rs64Wcc
p1292
I1868
sV-YeuVmchu-M
p1293
I1320
sVf1hIiPRnh-0
p1294
I840
sVhMPtMTO47xA
p1295
I262
sVbZHo6hTeR1E
p1296
I1148
sVEoaFDkmB0Jk
p1297
I1339
sVeDUgv1M839s
p1298
I3937
sVkqNZtAc3nFk
p1299
I852
sVFxDc_hPFGwQ
p1300
I4374
sV1GqfsNyJhVg
p1301
I1839
sV2FKPhk_KmkA
p1302
I802
sVpH5iLuRPXrg
p1303
I1518
sVkNDci7mlgBU
p1304
I2379
sV85Lnfh0GgBQ
p1305
I755
sV1X6333AjlMs
p1306
I2330
sVHtgOJp_D3cs
p1307
I7606
sVgPkImWxP9vQ
p1308
I821
sVmFXYkrmYvJk
p1309
I498
sVeMjKJzQyHSU
p1310
I919
sVIOkry9TVGa0
p1311
I3985
sVXPDW9uxEt80
p1312
I990
sVqZzWHeoHdDw
p1313
I1156
sVg3mV1x0kAqI
p1314
I856
sV7SF5ds-UaVU
p1315
I975
sVXxHNEY_OOU0
p1316
I2195
sV_WHbdJXScc0
p1317
I1639
sVMfdWL6NHpuA
p1318
I1110
sVaovqQi1dFnQ
p1319
I936
sVR8pnoRV0phs
p1320
I4169
sV1vyQRQtkQ3k
p1321
I1356
sVwpC_-5SMCro
p1322
I3139
sVVfQhHWKBmEE
p1323
I2960
sVKcaTlCE7SdA
p1324
I8067
sVeMcmP4gEnHk
p1325
I1858
sVMW3r8OrxiuY
p1326
I497
sVpUnveDU25ig
p1327
I571
sVXBidXk4zQr8
p1328
I995
sV2EPoZGwwjr0
p1329
I2449
sVkIZ_SHHlhSw
p1330
I136
sVGi8Ow9SYiAI
p1331
I677
sVfD6Lz5mjUVs
p1332
I693
sVr4Z0qbr8wPY
p1333
I1294
sV2M5m2eBhD7g
p1334
I285
sVkBWbx48UbYg
p1335
I3053
sVdj8RHY69GjE
p1336
I420
sVbJrsMYi1Zpo
p1337
I2572
sVb_24CmGqYj8
p1338
I1992
sVIX8uoQaj4CU
p1339
I831
sVcq4fVJ4mjsE
p1340
I1393
sVPOLP2FgyWag
p1341
I1633
sVPjEPhgXEq34
p1342
I879
sVjEY0MvokFFo
p1343
I2787
sVFUmDDydxJyA
p1344
I13744
sVm6Ve8yGfcEY
p1345
I1771
sVdmVuEPGUvZw
p1346
I465
sV1XXHd1fgzPw
p1347
I6699
sVoCJVg0UfBa0
p1348
I1408
sVow0b-SS5XW0
p1349
I426
sVpwJqzJN2Piw
p1350
I1541
sVEhM0o0rTcuM
p1351
I1144
sVWit3avYZ-WU
p1352
I150
sV3dQBSsH36AA
p1353
I3586
sVoMphci6vpLY
p1354
I1231
sVYcbEb7h11XA
p1355
I6658
sVHmNLJaoUxh8
p1356
I932
sVXkg-siFYX8E
p1357
I1812
sVbtYhWoxchro
p1358
I2014
sVtTJFznQjFuM
p1359
I3693
sVZ1sSfqeKpuk
p1360
I3895
sVekh_aNZXrNA
p1361
I257
sVUAPygfYIzgY
p1362
I772
sVNZc3kvCPQRg
p1363
I5320
sVZrWlf71fS2M
p1364
I6687
sVpRU7GqLvazo
p1365
I923
sVe0pb1FA2868
p1366
I2062
sVRWFouTfRIIs
p1367
I851
sVojSkyaJSMUI
p1368
I807
sV0tqahzEtMLQ
p1369
I1310
sVmAoUi9YMG4s
p1370
I2165
sV3UIN3-RF-a0
p1371
I2782
sVjmO_IJ8doeI
p1372
I1266
sVRWhfnlbubT4
p1373
I1289
sVmHGtVPAV7kk
p1374
I2942
sVLkBytzknMGg
p1375
I2714
sVWuCxpp0IkoM
p1376
I643
sVJhr9k7HUmmY
p1377
I5448
sVB2XAonYISuA
p1378
I6309
sVf5T5IcHWnEI
p1379
I347
sVzJ_eYdq1EXw
p1380
I664
sVenPWVvool7M
p1381
I1274
sVziopemxpl6w
p1382
I1831
sVT3j4Ky0cz7g
p1383
I5084
sVi6qgYbtZN6U
p1384
I6215
sVBA5V13kiIJ8
p1385
I3276
sVu5M08FASJTs
p1386
I349
sVe8uidZXdsNo
p1387
I533
sVLTr38buy8K8
p1388
I5767
sVlisBIaxDsuI
p1389
I1920
sVBlrIQk2Zt-I
p1390
I1597
sVe7i3eCuOcrc
p1391
I1133
sV-TYedWQk1oE
p1392
I522
sViUvAsf7dOwQ
p1393
I1594
sVSPYHAmnV04M
p1394
I2162
sVmffSwijp-8o
p1395
I3181
sVq_PXYDqOD4A
p1396
I2297
sVhxziT1219Jc
p1397
I414
sVR4bLnrJPot8
p1398
I1049
sVDrjgbJTdtVg
p1399
I1880
sVjglWlf5AH4g
p1400
I1559
sVgfi_cPcQTE0
p1401
I4552
sVxscqFnJOtWg
p1402
I4402
sVjgQONktMX8g
p1403
I2937
sV-l6eSOvKgEw
p1404
I3711
sVFOd6ANHX6fw
p1405
I1354
sVKKbzyme_Dos
p1406
I2891
sVZDvt1rxQ0co
p1407
I1603
sVdKMO5CUVHlc
p1408
I158
sV_K3c7REVGJk
p1409
I2186
sVYGJBu-fNYmE
p1410
I524
sVLGcuYOujjLE
p1411
I4388
sVPVC8-Q54ZLo
p1412
I3492
sV2T2McT00PCk
p1413
I1353
sVvB9ivL3s2lI
p1414
I915
sVLQPzh-WGfiQ
p1415
I4877
sV7KAO_dHaYwE
p1416
I331
sVfG_YLXbFvCk
p1417
I4252
sVqT69Fj5NHm8
p1418
I5692
sVWInH6ld_4Ko
p1419
I3295
sV01Tn0Fvc1bA
p1420
I199
sV-pMCHta1HrE
p1421
I2939
sVraGqLuVLzBo
p1422
I4816
sVJjpG4Hg45f4
p1423
I4072
sVu3wam--gjWk
p1424
I1392
sVKenPabvvf6E
p1425
I152
sVC7CECSLSHLc
p1426
I6993
sVE4qpIGn17xk
p1427
I1939
sVnnSVtz3HOO4
p1428
I78
sVcwhcOREdxKo
p1429
I2595
sVHi_SsNzxujU
p1430
I3020
sVWxUMpiIp99s
p1431
I389
sVBsZRfhhy_KQ
p1432
I1754
sVhJJ_phaeGqM
p1433
I704
sVHHk_phQawKw
p1434
I2683
sV2Rhn3UyMeL8
p1435
I7336
sVfDQB489oUQo
p1436
I814
sVaRSBht9NZ8A
p1437
I2089
sVjWITZ_VDAUM
p1438
I849
sVPygSA18xZhs
p1439
I5085
sV0HVDKNHnjFw
p1440
I4398
sVB2DKG_pfSOk
p1441
I1804
sVJnCe0S2tImM
p1442
I2678
sVYg6HvoglHMs
p1443
I1814
sVFQo-jO-4cbg
p1444
I828
sVX3vo1CH4HpI
p1445
I4696
sVbiF5eYplgwE
p1446
I3558
sVgpeCvqi1epA
p1447
I1727
sVIc3r4YVDGP0
p1448
I869
sV1xI6S-ONhHQ
p1449
I1235
sVgocpTGtHf3Q
p1450
I4539
sVf9R5SWanVmI
p1451
I254
sVLxpj5ueWK-Y
p1452
I1048
sVq_SPrmcD-mg
p1453
I2048
sV7NbT6KLQdBk
p1454
I2862
sVV8qpwzfz-JY
p1455
I1810
sVGBHqj9uCgFs
p1456
I2826
sVDnzlomQ7hs8
p1457
I2362
sVtzdRmhu14WM
p1458
I3368
sVcsKvcAag4ZU
p1459
I281
sVOVX-sQBWTIw
p1460
I1193
sVh5OBFy2DU5k
p1461
I652
sV2oUDnHud898
p1462
I1198
sVBkq0lMF4NK0
p1463
I1262
sVWw3bitWDtR0
p1464
I424
sVmzdnmlgV2ko
p1465
I1457
sVQjgIwRTRhfo
p1466
I6329
sVGAMkgWOWTNI
p1467
I1035
sVllVRRTW9nRc
p1468
I13880
sVFDBLcKUq8wU
p1469
I159
sVBkDexLYPq0o
p1470
I1345
sVxCk6pNhYfjY
p1471
I877
sVDeVkd9VGtNA
p1472
I629
sViALzMbRXNAU
p1473
I2133
sVl3mbDAd9K5M
p1474
I4232
sVGXQxea88RR8
p1475
I208
sVB-5ntpOA0q0
p1476
I1513
sVynl9A1k-r0E
p1477
I3106
sVYTtf3QCmzTU
p1478
I4833
sVCpo9E1mQz4c
p1479
I10956
sVZSw0MjjCSlQ
p1480
I1488
sV66q2tJS86Is
p1481
I394
sVUyRLfWTrYfQ
p1482
I1124
sVp-ZLSP-Bh5w
p1483
I458
sVTb81ba5wswY
p1484
I508
sVtiNy1ueHAFE
p1485
I352
sVLGwwsWv4Ta8
p1486
I1531
sVyjJWRbwz4c0
p1487
I2383
sVhPQo2No3G7Y
p1488
I813
sVU1cWxny7tWo
p1489
I3313
sVgpCa37isjGE
p1490
I895
sVo6swKi4CDf8
p1491
I6959
sV38anbXmUNpQ
p1492
I3459
sVN9Fka4BFJ6I
p1493
I2178
sVracngI60xU8
p1494
I904
sV8MZRWt8Hj74
p1495
I2186
sVqxeGHQdH2wo
p1496
I895
sVROAKb9iJdPM
p1497
I3227
sVnGtt2EYxlHg
p1498
I366
sVkmS-POtwspg
p1499
I285
sVMBAiG16eh1Q
p1500
I1013
sVkAfUa3CmIuk
p1501
I1319
sVppSaXSi04pk
p1502
I4985
sVBWlD395p574
p1503
I1785
sVunHFOYqjoO4
p1504
I1837
sVCezTw7kqm3Y
p1505
I5359
sVgH3jpnlTqWU
p1506
I2476
sVnOK3yi3ePiI
p1507
I4008
sVJsonl7sCOKw
p1508
I494
sVilnv65GCWZM
p1509
I1294
sVNepThx2nvWY
p1510
I4071
sVXhQGDFnoSzg
p1511
I2773
sVdLbkg__retQ
p1512
I996
sVtqeSR_yOJiA
p1513
I493
sVFbvxgpl0Xes
p1514
I260
sVPXZNIw3PhSI
p1515
I4325
sVWiDnmpw_eTc
p1516
I1019
sVP73WiznANAM
p1517
I2681
sVbxl64WnNnKI
p1518
I7217
sVEtKJgbhjY_s
p1519
I10161
sVuzieKyEG510
p1520
I659
sVXwsFRv6f4xk
p1521
I209
sV8Bv3l347cYU
p1522
I345
sVv4Ee775_Ls8
p1523
I3603
sV-o7mhNyKsjE
p1524
I3310
sV2x64pErKZSA
p1525
I322
sVYtarjFhnLNo
p1526
I1347
sVc0jQE0JT8Bw
p1527
I2411
sVD1mMHMagHI0
p1528
I747
sVVSsG4tKSH8g
p1529
I4828
sVGsQxzMf0kH4
p1530
I847
sVJXB_Xj3BSgw
p1531
I4079
sVdWiKcTy5mGI
p1532
I1857
sVJqTQALVJ1Qk
p1533
I5775
sVKzZXrVOk83M
p1534
I885
sV39qUUgv_Vxg
p1535
I772
sVMIWwVNweG9w
p1536
I1485
sVq9_nvP5ShB8
p1537
I853
sVIAmH4hU7Ye8
p1538
I5795
sVsnzlz37FxMw
p1539
I5001
sVUUfg5VFJ4vo
p1540
I4086
sV2Fqguy1UYVM
p1541
I1433
sViAbaXnQfeZ4
p1542
I254
sVyuZ5uNlRlRg
p1543
I1708
sVCp4gCGjzQpw
p1544
I4303
sVmifRBFLDyaM
p1545
I7425
sVp3vgzVKePnM
p1546
I3570
sVo9vVczPNk_Q
p1547
I4869
sVmOKXieuCRJk
p1548
I1743
sVKu7V_dTOYg0
p1549
I4975
sVIVPYI2pWMOA
p1550
I2061
sVLDTCNxNH-0w
p1551
I2527
sVPiJR61cmTIw
p1552
I634
sVBEtzWuMOOvM
p1553
I374
sVWayK_nHKX9o
p1554
I2158
sVhNsdED-IJ90
p1555
I1553
sVFZf7xA3rgcI
p1556
I1457
sVflzz4OAELkQ
p1557
I1391
sV-_wOEpl15YU
p1558
I1121
sVBIutrjcXyWs
p1559
I1313
sVhzTXMk65n7Q
p1560
I8128
sVUf1k5QDbVxw
p1561
I534
sVv0o6cYEbQPs
p1562
I1779
sVkDu_3cjjrm8
p1563
I893
sV1nYanHSA-k4
p1564
I975
sV8YlD8n21NUk
p1565
I701
sV3Nvx9I6r7aY
p1566
I4486
sVE-lBYwISmWo
p1567
I60
sV1bgJ0OwlKV8
p1568
I1425
sVLZyhABgQQHE
p1569
I1622
sVl2wYl4VtWmc
p1570
I518
sVN_-386I3mtk
p1571
I214
sVQUo1VnvFTbY
p1572
I2786
sV7ttIWwOQD3s
p1573
I1551
sVh8zghH49kc4
p1574
I2038
sVmZybfE0UHdg
p1575
I3188
sVJz6kkkEl5ro
p1576
I4303
sVrwrwt6EZYvE
p1577
I1530
sVcjHVir2Uls0
p1578
I341
sV8aWLzfWC3Ko
p1579
I830
sV78_IPbUoTLw
p1580
I840
sVfCOX7pAA7Hg
p1581
I1188
sVySXItSCGLVQ
p1582
I2029
sVOQ_2tbrmjQY
p1583
I299
sV56D6pZHezSk
p1584
I355
sVgG0tqkJtz2A
p1585
I14464
sVFKr_5tiWkzc
p1586
I2114
sVvGiGeeRE03c
p1587
I886
sVqxB6vtGqGS8
p1588
I8860
sVfwtqRI2tcDg
p1589
I14505
sVPD4vqYnuCic
p1590
I577
sVBStrQceGaeI
p1591
I3272
sV1QawHxCZQ9g
p1592
I7855
sV_FHZykE_pMg
p1593
I845
sVHG-q1BzqFs0
p1594
I1686
sV7JbB8sbQ6MA
p1595
I979
sVVJQU2ZdpJBs
p1596
I5390
sVsCzVCSmdWHI
p1597
I12011
sVj0tdiLAABKw
p1598
I134
sVp596vsyo2TY
p1599
I3697
sVzwvHWQXWd6A
p1600
I9049
sVYFGhBH1-tnw
p1601
I228
sVSeVR6aWhGEg
p1602
I1612
sV29M25CsyPUY
p1603
I1160
sV0U2VusI6ZoU
p1604
I474
sVxDpJktNJDyI
p1605
I1986
sVOpS77vlsWyI
p1606
I2025
sVTft4ZRG0OVo
p1607
I1311
sVK8rN1e_KaKo
p1608
I907
sVTV213mYLW70
p1609
I1847
sVZk_CrTj76y0
p1610
I2972
sVDoIsxOIhCz0
p1611
I150
sVMlDpE7Lu6LM
p1612
I2220
sVCL5cI-wsmiM
p1613
I1368
sV2lRTPXmNgo8
p1614
I9171
sVCh6ThpOrN60
p1615
I315
sVU0Zp80UsiYs
p1616
I2472
sVhCbUnjIhfok
p1617
I691
sVimZQ525clys
p1618
I2760
sVXfk5kpRVknk
p1619
I2121
sVYhGOiCGXv-w
p1620
I431
sV-u9Rs3bvXOk
p1621
I1195
sVZvDKlG8lykc
p1622
I295
sVSzPH-U_CAoc
p1623
I2002
sVrfYxIDyIuPk
p1624
I3790
sVHxFSYRcnEfk
p1625
I10632
sVGyCmLwtMd-U
p1626
I460
sVnTQhPn73Vyg
p1627
I1168
sVEAxxdLXpt7o
p1628
I904
sVrUdJcdeJYhg
p1629
I232
sVjTNvWyHE61k
p1630
I4202
sVF7pZ8KY4hi8
p1631
I786
sV_38LYn1P7U4
p1632
I748
sVde9S5nQng9Q
p1633
I148
sVg4PAzYLw_Vc
p1634
I3657
sVYQyGU13rydQ
p1635
I711
sV264aoueiMyY
p1636
I312
sVoT2e95_j-zY
p1637
I3604
sVjsoNoJXPhuw
p1638
I4629
sVM6-cxxyL6dM
p1639
I2189
sVtN3xJbt7P0U
p1640
I1350
sVp3q39CAXZ6E
p1641
I1626
sVRejdJz3h7KY
p1642
I490
sV8Cq-rhlIVUg
p1643
I2023
sVuJrVFxb1fpw
p1644
I4366
sVHwkywT1xpfc
p1645
I3706
sVdIGY5MB3mWw
p1646
I425
sVmbpXCFG-YSE
p1647
I2485
sVjNlUrsPCMRU
p1648
I5824
sVBXE6pM7IC4s
p1649
I806
sVv5o4RwcRykY
p1650
I3303
sV2Zz2YVXjIe8
p1651
I431
sV0kIDeKrPBUU
p1652
I701
sVIodLvZE95i0
p1653
I1675
sVCvNW_pBZL-U
p1654
I1696
sV7zaU_ChqzpY
p1655
I1469
sVrl3nBQ6-6Mw
p1656
I123
sVg_ongHn824k
p1657
I2707
sVkA0cupkxwS0
p1658
I3360
sVk5v0BezWovo
p1659
I2235
sVNWYEgR46TDo
p1660
I2376
sVpRGISCosQ8c
p1661
I1619
sV53fvufynmVY
p1662
I1234
sVTvWyVOMR168
p1663
I7909
sVEoBmi-Bh9cA
p1664
I91
sVQ8VyM3P9css
p1665
I5410
sVGq8ka7qROVE
p1666
I3286
sVxEEcIApqurg
p1667
I1344
sVlGQDXK3tuiQ
p1668
I2108
sV1HHq1L7S7Nc
p1669
I240
sVRck_qTjHlPE
p1670
I5995
sVYqwwK-xBSpE
p1671
I1448
sVHPAMiF86cbQ
p1672
I347
sVDcKn7p29bTg
p1673
I995
sV-uzcNyBWMiI
p1674
I876
sV8ywK2Bjd62c
p1675
I1438
sVvBWXTupodck
p1676
I2591
sV1tlPk2-OX0A
p1677
I560
sVGetntNP9c-E
p1678
I348
sVUayaplJXWUc
p1679
I5514
sVGGk3t_wfK40
p1680
I2162
sVNnFQWtpS3Vo
p1681
I240
sVD_oIBfRyPY4
p1682
I1402
sV-hpHjpbUrMs
p1683
I94
sVTZxfRB8ujcY
p1684
I3854
sVeCE9qFCJQxU
p1685
I3263
sVLMGzaEMviHI
p1686
I6946
sV2Mmp3ZsBUt8
p1687
I1911
sV-JuQkGgQCdA
p1688
I9975
sV1z3PsBbhXg0
p1689
I1387
sVfjCQ_Jq5xPM
p1690
I1810
sVWGzH_T6KZ8s
p1691
I465
sV2itkvKsfYSY
p1692
I427
sVwUVNprAG-MY
p1693
I2786
sV_SLD0dBeMUQ
p1694
I3382
sVl576aCJknSA
p1695
I753
sVG5HlOwURXAg
p1696
I1636
sVlBss7K5f1AQ
p1697
I5084
sV7CjCCDfC1NA
p1698
I1016
sVHhx4QNal1UI
p1699
I272
sVBtyyaila92Q
p1700
I1265
sVJqqE_Rmvyws
p1701
I2699
sVfBfTC_6DX-o
p1702
I784
sVIPWaA2goeag
p1703
I5966
sVG-uXG2znp6Y
p1704
I889
sVyf3UHl93eEk
p1705
I1867
sVSnHUqozarjc
p1706
I1578
sVxTdw5hHWufU
p1707
I549
sVDxZeBb89ue8
p1708
I255
sVKrOjB5YPONE
p1709
I3420
sVEyJFniuFBYM
p1710
I441
sVGQoE8Intxk0
p1711
I831
sVFtx39yX9AP4
p1712
I1525
sVCydjUzXR-Uc
p1713
I1487
sVIFubdk0FyJ8
p1714
I8069
sVyytNOkCsE7U
p1715
I1341
sVMShXjsQKscY
p1716
I4014
sVnTHIiIuR0i4
p1717
I5452
sVFAJDC_tF_48
p1718
I7784
sVpix1IDV-ehg
p1719
I4385
sVbt5L7HckcwE
p1720
I168
sVmZASIFOv4hA
p1721
I2449
sVYaKyCizokHY
p1722
I5542
sVC7E1enpl5V4
p1723
I1946
sVBmTFQy27Ld8
p1724
I2385
sVEQUWMzIjWl0
p1725
I1566
sVw_X6a0PzqGc
p1726
I1663
sVkCOSAjcbElw
p1727
I12650
sVqTfcHeVY7h8
p1728
I1150
sVFvbjk0IvonM
p1729
I328
sVQPcvD9WqPoQ
p1730
I330
sVnrZrIgpPsg8
p1731
I167
sVS3qUAa9z0GU
p1732
I702
sVONANIONCcWc
p1733
I6087
sVcsdUl5gVuQw
p1734
I750
sVI5Oq2Rk6afw
p1735
I3624
sVkgpvXo9657g
p1736
I6243
sVRO2fAHoF4Ds
p1737
I1637
sVYgcwrUIe5Z8
p1738
I1456
sVksd9n8_-gNI
p1739
I652
sVubpRwK8u6dc
p1740
I3586
sV2Y6q6345iAk
p1741
I3176
sVMyYHaM_FPmg
p1742
I978
sVg9bU5TMBeKg
p1743
I2607
sVL7HhsuWiodQ
p1744
I1233
sVjIc4vXqOlw0
p1745
I2998
sV0Ec9GyJAEjY
p1746
I3039
sVWXqAph7huhE
p1747
I870
sVr3pVvhH0qFI
p1748
I11843
sVB4oWRzEteug
p1749
I1431
sV-lE3PMRuOck
p1750
I1484
sVvT6L5_mwOWM
p1751
I682
sV0YByiOReG8E
p1752
I293
sV2wUb3DajqTk
p1753
I701
sVVvVfTggcsRk
p1754
I420
sVV4byTjssKUA
p1755
I120
sVBwWxngYSbAQ
p1756
I6670
sVsEMFw9VWi4g
p1757
I1061
sVVSr3hYnwDXE
p1758
I778
sVMt51rL1uxqc
p1759
I1609
sVKb8DonykKK0
p1760
I783
sVPY0QuTTjfkM
p1761
I3203
sV8s4BFWVYtSA
p1762
I317
sVFlp0Ir5XMZo
p1763
I275
sVs9qU9xoZ0eg
p1764
I434
sVDiK8-i9xqRk
p1765
I579
sV1KeWGM_rapM
p1766
I1258
sVwyh0ebIYamk
p1767
I10336
sVK7eelLgZPGg
p1768
I640
sVeL6ENKMAi4Q
p1769
I4672
sV7FK8zCZxDf4
p1770
I1643
sVUXsNvxQp0JE
p1771
I438
sVJE5UzJ0n4f4
p1772
I665
sVj5g5sh40jSk
p1773
I1528
sVN4Cpm-FjTOg
p1774
I6981
sVoTc2gCqCgbI
p1775
I988
sV3SCYCGvQCzc
p1776
I2678
sVTpReiz1hVdc
p1777
I2496
sVC12v8LsbqgY
p1778
I837
sVJnJ5XqujAO0
p1779
I2060
sV3Qnv6_yThOE
p1780
I1958
sVKL8WQPrVYiA
p1781
I2575
sVXkWSpawtGks
p1782
I451
sVCrpsmVIXX1E
p1783
I7902
sV3RJZTepoVIk
p1784
I428
sVyYagyqhvG2Y
p1785
I893
sVdz9FA9tNMfQ
p1786
I1575
sVE7KbcvEzKR8
p1787
I832
sVgiVpvhSyxME
p1788
I699
sVN0LLACFYQdw
p1789
I1611
sV28GCzl9LqwA
p1790
I1141
sVi-T98UC8qXo
p1791
I16716
sVkjqBUhuLh9o
p1792
I3594
sVhhqv-MHy7Uc
p1793
I1528
sVN0Y8jzjPGj0
p1794
I538
sVghZE_nTiwh4
p1795
I2178
sV61rqTvFTdao
p1796
I1019
sVNPhucNCmZXI
p1797
I1060
sVp4SU1o6xX3E
p1798
I711
sVhiuYOVKS8jU
p1799
I929
sViDbDqBUDdsU
p1800
I764
sVukiRHSAoedo
p1801
I353
sV8AZ5A9vhRp4
p1802
I239
sVkjL9NSsBVNA
p1803
I342
sVH-NI4DPviV0
p1804
I1909
sVZFudhuVbC_M
p1805
I884
sVuke3sKDPBTs
p1806
I562
sVvbBosPn02eU
p1807
I393
sVTvejiJ7FVR8
p1808
I1692
sVtrxdsyO8x8g
p1809
I906
sVuWt4_gQpCPc
p1810
I1915
sVGeYPdTmWqbE
p1811
I407
sVInMurzoNmyY
p1812
I1971
sVuQ1ucYY-uAQ
p1813
I554
sVgkX3RSh_iKY
p1814
I671
sV0rRtFRHgwhk
p1815
I4743
sV3kuCu5Tk0lU
p1816
I901
sVLxBXypreBHw
p1817
I1804
sVquuXiliUMik
p1818
I128
sVns2cQOb072Q
p1819
I881
sV8LW7Cy3aKec
p1820
I2967
sV3_ubKLNr360
p1821
I6245
sVDtKeDw9VSLw
p1822
I4710
sVkqA_cyzZOjY
p1823
I5704
sVYt_54j1ozlM
p1824
I3683
sVUibFsa5UIIM
p1825
I1539
sV-w53nxHgC74
p1826
I1496
sVF98ZVCNUO7I
p1827
I914
sVcViCoJjxa8U
p1828
I3534
sV1tYoC0J8058
p1829
I3627
sVDovjYYfF8e4
p1830
I1157
sVrmExzXagWjY
p1831
I2841
sVXgY3hxe6ii4
p1832
I273
sV3-LiZ3tqE0E
p1833
I411
sVhC5GaPEYmVg
p1834
I768
sVpZbr2W2NvsY
p1835
I226
sVwe1ZjGPp3cs
p1836
I2277
sVR5MpWHkfkTM
p1837
I2961
sVQAfNBI3q_kc
p1838
I892
sVP9_TNaaOr98
p1839
I502
sVHpIWDQiXuD4
p1840
I5785
sVCrPrIrNhbg4
p1841
I87
sV1bk2ebEnWWs
p1842
I4430
sVRL9u8c4_H2o
p1843
I4321
sVOTun1bUOIJQ
p1844
I1860
sV7BmFBbIyyzk
p1845
I955
sVussBGHoZWro
p1846
I6138
sVL2qcv4tv88g
p1847
I3039
sVdPjcbaFUih8
p1848
I9001
sVGEqvNVd3kSQ
p1849
I317
sV84nQPdQgaPM
p1850
I5309
sV0XEyBKELKI0
p1851
I620
sVcL5VKtojfEg
p1852
I5679
sVnniJtbdjqtE
p1853
I2170
sVI-V4bOkSjYQ
p1854
I451
sV7Zq1xsYBVGk
p1855
I2357
sV2qF1LX9VjtQ
p1856
I7249
sVCd7jcGEKbHE
p1857
I449
sVzIGPX2PlgoA
p1858
I1265
sVkGp0YAp2eZ4
p1859
I2457
sVsXy6UL2VWIY
p1860
I5535
sVmoA78wbgTC0
p1861
I7511
sVPIhoFh1NEOM
p1862
I151
sVvUY1QwU39dc
p1863
I442
sVX8zMJboiLrw
p1864
I1819
sVIN2eXGUI1nY
p1865
I2567
sVH2FUI3VxZFM
p1866
I2362
sVesmyBEMo8kY
p1867
I2160
sVdM55prTU-nU
p1868
I849
sVHnrJu-_n1Mc
p1869
I2370
sVr1YZbv0Fzbs
p1870
I7590
sVxX-7lQxogZM
p1871
I394
sVpkpdp7wAhkQ
p1872
I1054
sVUO4SoPBo164
p1873
I7152
sVdUYdC4oXrJw
p1874
I3616
sV3k7OZP8YinY
p1875
I1574
sVqHwNX_mzffU
p1876
I4703
sVopTLFZs5K4M
p1877
I2699
sVkAIRlnP8UVc
p1878
I9244
sVwi5Q5jzva1s
p1879
I872
sVzozObLTIFuc
p1880
I2578
sV3Lo3XwH1lRY
p1881
I8759
sVZQYyNCy5-fM
p1882
I998
sVQg80PHkXTjs
p1883
I5810
sVs2KbC_RbyDw
p1884
I1063
sVbw31o29_z7k
p1885
I2476
sVhQKR5iR1ix8
p1886
I409
sVyDlL7hceA1k
p1887
I859
sVh91NvVMG0TY
p1888
I532
sVhAEtftpd6nw
p1889
I353
sVmFmfO5Md2rs
p1890
I1037
sVffzRX4wboBc
p1891
I5487
sVyylx3VVdyVA
p1892
I42
sVGd8H8BSRIlw
p1893
I4231
sVSxMbN_sCA64
p1894
I748
sVOjLWcxP1Jng
p1895
I2059
sVi1DwlgEWvKc
p1896
I490
sVcQvUWIE3fIY
p1897
I701
sVZoULxHCefWM
p1898
I2286
sV3TxmjPl9Vaw
p1899
I2654
sVnymfb7yldZg
p1900
I644
sVXGEim4yOWA4
p1901
I1573
sVxpQ0GwScqLM
p1902
I4302
sVVJ3mOSPZs9k
p1903
I507
sV_wH1HyP32m0
p1904
I2277
sVICW1H1jXCgs
p1905
I3420
sVdgE9J8mA5_8
p1906
I5003
sVEpukHYGl6Sk
p1907
I748
sV0EwtL2yr0y8
p1908
I1641
sVYjJNtjlG0WM
p1909
I1549
sVdLcI_XjA6N0
p1910
I103
sVNiRDGzda_ho
p1911
I3938
sVmqSPxvYwgSM
p1912
I1291
sVMGE_5Csg2-s
p1913
I1723
sVRdGSi_mU9AA
p1914
I285
sVssY0aD5DQ68
p1915
I3914
sVwdZz62TAH9M
p1916
I496
sVIp4ZGdTix-g
p1917
I428
sVlJFHRfCmn0A
p1918
I774
sVSa13eZZdwhA
p1919
I1830
sVmJQOYNps6zI
p1920
I2767
sVUpYbGUia_eE
p1921
I4582
sV_TJkix2xH54
p1922
I1003
sVH5GyACXEjL0
p1923
I4558
sVHZ5wOoembkI
p1924
I3619
sVhs1dat1Gok4
p1925
I1102
sVNe3by6_XLMA
p1926
I3234
sVOyc-qZeihN0
p1927
I1539
sVQE30HRk7Up8
p1928
I1042
sVLBTHQbLWZzo
p1929
I123
sVDXN5N-_tbAw
p1930
I249
sVKBEmFLaGRb4
p1931
I7051
sV3ogSC8TdIxQ
p1932
I656
sVelw2kztpEv4
p1933
I1987
sVdTbnopxdJlw
p1934
I5013
sV_qAbPnPj1a4
p1935
I382
sVHcX7pxnys9A
p1936
I10953
sV0QweaoZDeQ4
p1937
I4331
sVzHPK8BbBf4Q
p1938
I9810
sVZ_fXM2onKds
p1939
I949
sVYmwDefS2jdc
p1940
I396
sVeIolXj9b8eg
p1941
I2036
sVtrJ1Rckf8gw
p1942
I861
sVBgCBucJe8rg
p1943
I6844
sVvvEkazo5eNY
p1944
I324
sVLmQQhQLqEQA
p1945
I1590
sVZxkkMQGa-EI
p1946
I1819
sVrF6PbLWcOlY
p1947
I7810
sVVyWZye6-bis
p1948
I297
sVO0Lob_04LJk
p1949
I4903
sV8m0Zgc_vssA
p1950
I1956
sVGCQTi1NNGbA
p1951
I3518
sVfYFuOl_ZTKU
p1952
I501
sVyQ-XuOgTrJ4
p1953
I3666
sVNefBF034-lQ
p1954
I2699
sVhzpxQyw6wlA
p1955
I562
sVs9G1tgn6ARg
p1956
I596
sVPLypejopTWQ
p1957
I6937
sVjdzLhOudHkE
p1958
I943
sVMaWSCtWOJI0
p1959
I635
sVmtYgCvCz_Z8
p1960
I2737
sVlGDhRlVb1HU
p1961
I1959
sVOu3BV3A-NQw
p1962
I283
sV-pPSM_rMu2k
p1963
I673
sVeCq_9W4pBg0
p1964
I2819
sVOFrdAzDv4co
p1965
I1646
sVJKVEB2Oys1w
p1966
I3079
sVfS2xTnylVsg
p1967
I3384
sVYdEdB7Osbsk
p1968
I515
sV10eF2Y1vtSU
p1969
I516
sV71qgYAWFDEg
p1970
I827
sVXw9Jwkd0Gjw
p1971
I7186
sVd1v1VCZaqHM
p1972
I563
sV2HoEs4hZkK4
p1973
I359
sVtzr0TFxHYLQ
p1974
I10037
sV3T85CvjTvn4
p1975
I918
sVHvRg8ACenss
p1976
I1289
sVIPj6EaLCUN4
p1977
I394
sVKLSfXBf4o3o
p1978
I841
sVy-gEgzO1v3Y
p1979
I4772
sVH0s3TZecyXo
p1980
I6878
sV1Eb0pg65f3s
p1981
I3881
sVVfh51fXmtx0
p1982
I419
sVNZ-H_DErne8
p1983
I2028
sVlAi6NiKLQrw
p1984
I2185
sVgqkj3ffHtEw
p1985
I11074
sVrTRwmVX_VmE
p1986
I1914
sVU8iWW87pR-U
p1987
I2435
sVBmvJMy1Zh-o
p1988
I2185
sVs6WSkpD_fK0
p1989
I672
sVUv0ZNjj2acM
p1990
I242
sVos9ywBYjX3E
p1991
I250
sVUyDJotdSG7w
p1992
I652
sVVznWMdjXXYI
p1993
I5390
sVjRXqSob-2Hc
p1994
I1363
sV3K3lAli5P2Y
p1995
I969
sVEOwofxERuEI
p1996
I606
sV_SIsRcOv5rI
p1997
I15883
sVcDm8ZUCciFk
p1998
I5976
sVMUc9ANvZMh8
p1999
I821
sV41NJZqvGUZM
p2000
I1000
sVjZU-zZAgBQM
p2001
I3410
sVTuPn9LFLKoM
p2002
I1431
sVofBUVAc71Go
p2003
I2229
sVELi6B2i8j7g
p2004
I2245
sVdF9NLbvZ93Y
p2005
I293
sVH9sdn7xMHhw
p2006
I951
sVdzhwUNj59sg
p2007
I654
sV-2ADyk_D7Ng
p2008
I500
sV-PG81_DTbiU
p2009
I4030
sVSzhRHTLSJZg
p2010
I1258
sVV0cHx-2MGic
p2011
I888
sVgfyil_W9EVw
p2012
I529
sVeQK1KBaIHuQ
p2013
I308
sV1XPdAYTGOf8
p2014
I931
sVDTXsNB9JskA
p2015
I1370
sVhkeStwlHsl8
p2016
I1052
sVziyceTGOq4E
p2017
I1128
sVnEyJKW3bMCc
p2018
I478
sVWdp5MSg26ZA
p2019
I1624
sVRMX_dcA5hOI
p2020
I1700
sVBAVDQkCv6Co
p2021
I1836
sVCDmWK8_UyLw
p2022
I2892
sVKKVcyeYAB-s
p2023
I508
sVutMLj5q8I6I
p2024
I1410
sVfE79AUAtcKQ
p2025
I1270
sVwW0A9KG0nek
p2026
I3931
sVFpSNWp37GIM
p2027
I1832
sV3u2VMvBRDZs
p2028
I368
sVh8Ft29Y6Ubg
p2029
I686
sVqvBrqvXMopo
p2030
I1438
sVDAAGIjEHAr8
p2031
I459
sVHn8iLlcSVXk
p2032
I1864
sVKhAHkUNKZxQ
p2033
I6693
sVsinu97Q7TYM
p2034
I761
sVSSWgUfnJw3E
p2035
I6619
sVhjS9w4IAjTY
p2036
I7191
sV_7pTisxxYN4
p2037
I1102
sVZQ_jH7NqDG4
p2038
I1263
sVBBsSotryJ60
p2039
I10451
sVOVxFJviK9Uk
p2040
I3435
sVNBHme_0Iwn4
p2041
I891
sVWBi4-pTP7YU
p2042
I675
sVS0W7zWL96V8
p2043
I2958
sV_bk6dveIKtc
p2044
I7147
sV8U2XcdkB9Bk
p2045
I1062
sVjPyiVtgXEW4
p2046
I1297
sV3st3MlL2vbY
p2047
I3330
sVnaDjVELWuCY
p2048
I310
sV6ufy2FyYPDA
p2049
I1014
sVH3sDdOd-RFY
p2050
I1596
sVdeq4tcytmME
p2051
I282
sVsdz66EQPyak
p2052
I822
sVOUVmJ80lPTE
p2053
I2607
sV3UpqK1tHV48
p2054
I642
sVKHc-fVusqGk
p2055
I320
sVnuYwsqiZ1qY
p2056
I3856
sVzaRZE80VPTk
p2057
I357
sVyVhPoQnFnHo
p2058
I1748
sVU0Ae5b9Wf8U
p2059
I1659
sVPSzQyyUfojo
p2060
I1515
sVXIpKQaWzAr4
p2061
I908
sVMB4oxt4_7OA
p2062
I3173
sVswqVqC95Peg
p2063
I2279
sVWxKGLYkWS_0
p2064
I2294
sVRImpymPZoZc
p2065
I10379
sVMOj1bsh32PA
p2066
I1116
sVhcfOEVm1LUY
p2067
I1884
sVkSAM14pxiJw
p2068
I4944
sVINPJ1J6yVhc
p2069
I775
sVgEBP5Utvc0M
p2070
I310
sVjV4HQS9Yaqc
p2071
I558
sVVCDK1jfSA4w
p2072
I4449
sV0ujUsQvuPt8
p2073
I2006
sVzofULVqXDOM
p2074
I362
sVSxzowFZNZQc
p2075
I1982
sVuv65u6p2WWM
p2076
I2697
sVwuUp-nwjSa8
p2077
I3455
sVy5Om7z3uVOI
p2078
I2585
sVF5TK6aLvqpE
p2079
I2906
sVHR7ybNFQDNg
p2080
I527
sVIfiys_HUrGM
p2081
I5232
sV1EQ_2MPdqYs
p2082
I1128
sVCLLBPKFrFjo
p2083
I629
sVCQthouzLDFI
p2084
I3413
sVs3dhw0FLDns
p2085
I334
sVdH30tMdWRfk
p2086
I822
sVdl-O382ei8g
p2087
I1033
sVEkhMpSYqs14
p2088
I2600
sVbiSZr9DIuQE
p2089
I378
sVZ1dJjb38Kow
p2090
I922
sVWTjEB2lY_uE
p2091
I2725
sVfSv9lELJBks
p2092
I1722
sVuX2VRKkR6_U
p2093
I766
sVtMaSbHarsEE
p2094
I2836
sVWRBQuwcocbY
p2095
I8165
sVBS4Gel-v-pg
p2096
I415
sV1nvyJZv9pk8
p2097
I707
sVylyC1LE8jb4
p2098
I191
sVxW8Ec9y7YZ4
p2099
I712
sVmWUbqy2LIXA
p2100
I1083
sVCqydtPOgpsM
p2101
I1490
sVVeOFYzAE75c
p2102
I1993
sVHSqddd1olHA
p2103
I1103
sVuRvokHffbDU
p2104
I1941
sVuEwkIn2_AH4
p2105
I3551
sV1fzHD46wRwo
p2106
I793
sVvb2y5202V6U
p2107
I221
sVzPNE03iCE14
p2108
I1215
sVPsYzSkgHcNM
p2109
I1545
sVRkrV0oLbCws
p2110
I895
sVI1WJa_n2VIk
p2111
I752
sVB_MH8Z99r60
p2112
I1598
sV1sEURubw07c
p2113
I440
sVBvA7AvYvo7U
p2114
I903
sVEicHLffAmws
p2115
I3750
sVjuqCgUYaxsg
p2116
I587
sVbJqoxox3SS8
p2117
I4452
sVVcbyovqvtVQ
p2118
I755
sVhXlah249q_4
p2119
I1016
sVP1JPZ_a4WFM
p2120
I696
sVt39aanZ6B4g
p2121
I10352
sVoyN1YY56yw0
p2122
I14705
sV-Ji3RM-lTaU
p2123
I4418
sVu7LY51clB08
p2124
I2571
sVRKY6PV-NfoM
p2125
I2889
sVLkBgIN1DG_g
p2126
I1803
sVCxN4fYRlaoA
p2127
I911
sVXs4DTPDYj84
p2128
I2709
sVKIxhcajAvPw
p2129
I3452
sVyYWmwnKfMmU
p2130
I1209
sVF2f8tDGLTgM
p2131
I1684
sVlP9SiGWKc5c
p2132
I2699
sVIubuoOJ8YQQ
p2133
I839
sViJum8M2-RyU
p2134
I4242
sVa35TWmH6ksw
p2135
I661
sVpspbj0xhmJg
p2136
I2497
sVssnoRobLLzI
p2137
I698
sVRy_xFi0GFaQ
p2138
I2691
sVT5eNrVu1WKI
p2139
I247
sVEbbkgYSoHJ8
p2140
I4084
sVlJDyJEy-UMs
p2141
I1147
sVQgzb59Kr6BY
p2142
I2140
sVOjxMcw0QlGk
p2143
I1714
sVY5jhNLDRves
p2144
I4769
sVpkD2VtVV0FI
p2145
I1186
sVNQmIc-iNFI8
p2146
I198
sVV_iMn6xPbm8
p2147
I6186
sVpDy_1KcH7BM
p2148
I419
sV1xHaYAk4_1A
p2149
I483
sV-TSK5P5OZOM
p2150
I1926
sVETiqi98wQ00
p2151
I3835
sVsH5gR3A8lFs
p2152
I8100
sVR8_nqQ2BtCg
p2153
I132
sVzwj0Qv81Gfk
p2154
I1500
sVwzB_pk-l7po
p2155
I4885
sVWfleozGbshI
p2156
I1315
sVKqk0cVWiFaY
p2157
I1443
sVxYBIK3YB4ks
p2158
I4157
sViV8pL7jkVrA
p2159
I2186
sV8nHtcKPRECY
p2160
I854
sVP_dsTtDOsi4
p2161
I3171
sVBNI4zwJw9KI
p2162
I654
sVGeV_ggzaBeI
p2163
I762
sV_K2mFB6RIMQ
p2164
I3738
sVSv9mIIEh8VY
p2165
I226
sVprknSq6NC7w
p2166
I2593
sVDnRuNoEWi2s
p2167
I1112
sV1-7eYsFYZRQ
p2168
I4089
sVPWHlXb8aW6c
p2169
I1197
sVJB0mJGeHzok
p2170
I2737
sV2OkePGrwg-U
p2171
I1640
sVwz3b5XkIJ04
p2172
I1838
sVZdBpToCcBDs
p2173
I479
sV82LtokKdvMI
p2174
I4104
sVFBv6WepdBXc
p2175
I2486
sVPZitpl66lxc
p2176
I3046
sVK72vFbkWeaQ
p2177
I4399
sVtlQ5V0rY9_w
p2178
I1436
sVYnUpzlKVS-0
p2179
I375
sVYPKfdr4fx-s
p2180
I6815
sVfVLrWJM5TWM
p2181
I3284
sVBPCe_k1LJr4
p2182
I246
sVsI1foFDDYPg
p2183
I2027
sVsnBMli6fqmg
p2184
I338
sVLP9kzo8Erz4
p2185
I2040
sVdwXGFoeX-yw
p2186
I638
sVf-3kKMR23N0
p2187
I951
sVUAK559GiDrY
p2188
I15695
sVtcIYmUO5tkI
p2189
I404
sVqRS1oPUngp4
p2190
I620
sVF616IiJkFBs
p2191
I4624
sVZ4XYNFgDQr4
p2192
I6968
sViSK_MHFKv0E
p2193
I3916
sVqJQKikVrrDg
p2194
I521
sVHT1_2AGEEsw
p2195
I671
sVDifoiqwlpJc
p2196
I639
sVKkoF-vii6b4
p2197
I1119
sVDdCpMrzhfng
p2198
I958
sVcfKCFGBv9NQ
p2199
I667
sV3QDiCDnizSc
p2200
I265
sVvIFqvnQlYj8
p2201
I5496
sVJOd5REfyPT8
p2202
I704
sVrcLRQ4oE4fM
p2203
I805
sVWpdTzDj595s
p2204
I286
sVS3B3mlbv6PA
p2205
I1125
sVqq-99nNfJw0
p2206
I7822
sVximInYM9IpQ
p2207
I739
sVYMw32GphQlg
p2208
I7207
sVNy460iD22QA
p2209
I1586
sVB0ZXsiMwKmg
p2210
I703
sVRChnco3zhIY
p2211
I874
sV3PMhJyN0Tto
p2212
I921
sV0CKZ0Lg4d7c
p2213
I1052
sVnqnHEhOPwyU
p2214
I5332
sVgW09GsEvL0o
p2215
I653
sVYFUPGqlC7og
p2216
I650
sVJHvR09a3g7g
p2217
I953
sVg034lgL2wlg
p2218
I1690
sVux3wuYQR9PY
p2219
I2185
sVI3jzSCkCTfo
p2220
I3547
sVedJ3ujE-aNc
p2221
I905
sVXksUXDpBPk8
p2222
I1240
sVSNbWs9-aa08
p2223
I1702
sVnvD7rFcbGoo
p2224
I1338
sVFAnbgbkmSFI
p2225
I12251
sVThyUTthkHd4
p2226
I3842
sVFIgMPTpxJPI
p2227
I4593
sVFK9WIqP-Fzs
p2228
I1077
sVi_pL2RLK9uY
p2229
I1274
sVjKT8G5NF63k
p2230
I15527
sVZJLYbTIbT4c
p2231
I905
sV1leoLZnfQiE
p2232
I1012
sVeIpMr4IBNUk
p2233
I1191
sVX3IGzRBAxiU
p2234
I719
sVVUt3tlQHBz8
p2235
I3473
sVCp56zc1btGI
p2236
I1238
sVSzVwLixTB38
p2237
I5516
sVpo3K1uXa63o
p2238
I341
sVjskUpro_0zM
p2239
I446
sVmlL-1-8bKXw
p2240
I2395
sVBTN9T4Uh5BY
p2241
I4720
sVNgaV8WFBw_0
p2242
I2324
sVdtKubU5opoQ
p2243
I3078
sVzncvswDjyac
p2244
I1239
sVjlJLUlwxPTw
p2245
I1770
sVv0cjFVbN4Hw
p2246
I3186
sVlqmBlvtYfGQ
p2247
I639
sVjL5PnoK5mL0
p2248
I541
sV7DUrqokUoag
p2249
I267
sVzDQmQ1RVWz0
p2250
I638
sVs9TkLzJ7cXU
p2251
I1362
sVhwLkgLAmN3Y
p2252
I731
sV25dv5dOJCAU
p2253
I2140
sVXC9LAbD6ZZE
p2254
I1468
sVeTac65kLmlk
p2255
I1724
sV0GDBoFpSkd0
p2256
I5547
sVTvLwPPryCv0
p2257
I957
sVkkKVbLnUjB8
p2258
I5566
sVHq4gqw264VA
p2259
I188
sV1WF8FMitboA
p2260
I1185
sV_qbx8ve5fgo
p2261
I2097
sVff6IMBTjBxs
p2262
I441
sVXGeYoB222Gw
p2263
I2395
sVXsThrADCcpY
p2264
I1497
sVcdhdIwEvxy0
p2265
I1210
sVRAssaRkTG60
p2266
I3244
sVUqOTPkw__Uw
p2267
I1499
sVllPI9ZhHKM4
p2268
I1977
sVhaZzonKx7ns
p2269
I402
sVOLiwyhMBRBg
p2270
I3709
sVEAf6EbVYEEc
p2271
I15718
sVBTWN_TKftuY
p2272
I6422
sVKdaCEL2cFcM
p2273
I2809
sVo561eMAjxuU
p2274
I737
sVhpgJXfycRk8
p2275
I2424
sVQeD3-0KbTgQ
p2276
I6619
sVgYX8QD38J2o
p2277
I2557
sVEwPIU1IjTf8
p2278
I415
sVJ7wqPUJ7Hn0
p2279
I1408
sV21OowSIl2wo
p2280
I249
sVfzLHqRHmZU8
p2281
I1624
sVq2-jE-G_OVI
p2282
I6758
sVhrm8KB4NDyY
p2283
I1171
sVFjqA_xFyrB8
p2284
I444
sVQYyC4S2k9SM
p2285
I1181
sV2pBeBV_cnIk
p2286
I1812
sV8I8bZU0Ftyg
p2287
I2470
sVyjZH7YTXE3k
p2288
I628
sVkeZL6he4Hak
p2289
I1225
sVTS2gTt6k_P8
p2290
I946
sVlVCIgVJbybE
p2291
I1188
sVJ8kktBzAj4A
p2292
I2919
sVP-fWBIVr1xc
p2293
I92
sVe1NB2REbcyc
p2294
I3622
sVuggYnOkHrJY
p2295
I3585
sV8JIDjjC4Lyg
p2296
I13734
sVQXDr7mEXs-8
p2297
I1328
sVDjAsTxz9_lQ
p2298
I628
sVxroWRqqJym0
p2299
I1007
sVUuQ6FmODSLk
p2300
I201
sVVhSc-1yy5rg
p2301
I255
sVfl5xqUlOE8Q
p2302
I1512
sVyulswdDe_Cc
p2303
I523
sVI-mY5KLU2GI
p2304
I1184
sVB4A1htDQYiU
p2305
I488
sVRT2a8aET1ts
p2306
I1621
sVKo6Wgi3sQpM
p2307
I901
sVRXCBSDosrwQ
p2308
I1228
sV41stW8wFb1g
p2309
I1123
sVwWlbnv9YlxY
p2310
I1808
sVkeYMG7VJ7Jw
p2311
I2563
sVq3oExuq4KVU
p2312
I538
sVNRtT3Tvu98s
p2313
I1418
sVX9_xF8h05kU
p2314
I718
sVB5dxr6UvlEg
p2315
I2022
sVBIbdbbk2flY
p2316
I3938
sVsxUsfl7hujE
p2317
I2189
sVxvEz-JnsyIQ
p2318
I1173
sVkDsRlIDVxME
p2319
I2582
sVMFN1F9e-C3w
p2320
I475
sVbxNmhCXs_ac
p2321
I1805
sVt4mFuNRpZRA
p2322
I495
sVgITf5fg9pGM
p2323
I4151
sVDw-xaKpNts8
p2324
I606
sVkY9IAaKjuxE
p2325
I516
sV11dArtopIbw
p2326
I3781
sVBN8p_K_KIKc
p2327
I1274
sV_bvBdh6Xc3w
p2328
I2534
sVhUi-4GpJnNs
p2329
I1971
sVhtllt1qhMw4
p2330
I593
sVJbbcUeRH_ik
p2331
I784
sVmh9gnLyNcVs
p2332
I4550
sVKA9NHEm8PXo
p2333
I553
sVL1Xm9p7eMAA
p2334
I672
sVCDyMpUEX3Yw
p2335
I8321
sV1GggCQ40aCI
p2336
I493
sVLp1MUGBExTU
p2337
I3289
sVklJXs80fW_s
p2338
I1505
sVXypyu6y18Ts
p2339
I1014
sVxJemIwPJfVk
p2340
I1488
sVByrE3VKchaE
p2341
I1476
sVI5HJRLvH5NM
p2342
I1670
sV1c8axb3BuYQ
p2343
I5482
sV756OTf2YSW8
p2344
I898
sVND0N_pEMNiE
p2345
I4349
sVW2-jkI3smZk
p2346
I3983
sVsRA6xpyeuzA
p2347
I11922
sVb_U-I-WwvnQ
p2348
I5588
sVMYtvjrO3BLY
p2349
I2184
sVzELRe2FBpCI
p2350
I751
sVQjZGAQioZM4
p2351
I1196
sVfGASO2YDz3M
p2352
I569
sVyuP3se-sFNI
p2353
I1000
sVDnndEJiFpLY
p2354
I807
sVZyjI_-r0T_I
p2355
I1476
sVWlKDQJJVy5g
p2356
I221
sVXkeZaTXsEPY
p2357
I254
sVfOE_HB9v0Bg
p2358
I259
sVEwkdDQvA0jA
p2359
I503
sVMHTnsf7JH-c
p2360
I501
sVH3qkP544A_w
p2361
I827
sVwUpNgN7pfFE
p2362
I6281
sVPrOD1L_rtB0
p2363
I5788
sVMQZfxAZuSwc
p2364
I703
sVubaH27HXZ5Y
p2365
I763
sVluk5by7mRrA
p2366
I616
sVbgnqRVvr3R0
p2367
I545
sVFRTSsz7lhb8
p2368
I1611
sVbnMiqZL-3V4
p2369
I357
sVBDfbzjToErI
p2370
I6121
sVdlgjKJEerF0
p2371
I1661
sVO9j62wpBHu4
p2372
I2058
sVGUT-opqztkQ
p2373
I1729
sVU1zTWiFSHns
p2374
I1422
sVwfEZywi2I60
p2375
I917
sVLyH5xjsyufI
p2376
I179
sV8momU6zhJaE
p2377
I1206
sVlln6kYSul5A
p2378
I4066
sVVDb0kQIKrSk
p2379
I3156
sVlJVe8iypS-M
p2380
I1299
sVnzHLMiNO_FU
p2381
I537
sVRJdjdhT4ejs
p2382
I591
sVDWFGrs-CYXs
p2383
I839
sVsmEb8wNUiGY
p2384
I589
sVbx0fBdLeXn8
p2385
I5927
sVsvoNSeAEyw0
p2386
I440
sVTI5WOU92l1o
p2387
I573
sVc58hltKoXg4
p2388
I9359
sVq_pC1WNWZNI
p2389
I2284
sVN0X3Egvyo00
p2390
I782
sVZKTyeLYCLJw
p2391
I3851
sVH2FiHzksWpc
p2392
I769
sV_dx_fNQfGzE
p2393
I602
sVKuv3Pqz04f4
p2394
I1392
sVz-AqBXtVDwM
p2395
I16267
sV7535MnPB_nA
p2396
I3238
sVrEr-vGAMScw
p2397
I1472
sVQAJkSZn5XGU
p2398
I2446
sVkCl7kL98Czs
p2399
I247
sVe2SBdUSKThk
p2400
I6156
sVFH7z8PDJnOc
p2401
I3024
sVZRLY3SjDLt8
p2402
I787
sVpj-01VC-zX8
p2403
I2991
sVeXNzFnkcM5Q
p2404
I2081
sVzdObmKBOd4c
p2405
I2982
sVGE-S2Lsergk
p2406
I14800
sVeyxDWvdnt5o
p2407
I2297
sV-1oBvJX-sqo
p2408
I628
sVyRe3jZB95OE
p2409
I2130
sVPmnXE9RmBVw
p2410
I1394
sVOxdiMDRoIMA
p2411
I188
sVX7M9c4gXIcM
p2412
I8383
sV-K4hB7LCz_M
p2413
I2264
sV8hDrnFD4XJU
p2414
I3507
sVWT6TJS2WC8I
p2415
I214
sV_8GRx90RQJc
p2416
I1820
sVI5gX9ek2mgc
p2417
I1633
sVVUGitaA_PnQ
p2418
I874
sVba5oFkrxipA
p2419
I1537
sVPumaR9JWWuU
p2420
I539
sVFbBUDp7DZP4
p2421
I4214
sV3wpEAM9W7y4
p2422
I7254
sVJj-Bip23Ly4
p2423
I3885
sV-HKADwHaN2U
p2424
I4837
sVGqvO7Xx3f14
p2425
I1164
sVsVcY1ihLjY0
p2426
I2009
sV2stbH_jviS0
p2427
I774
sVSGwiVytXK0k
p2428
I4272
sV0LihSGgB0cQ
p2429
I5208
sVXHayRctIjuA
p2430
I9213
sVObQsrIz794M
p2431
I3384
sVIxilEglJttk
p2432
I5778
sVWJsw9Iqx4I0
p2433
I242
sVFgo008bRlTI
p2434
I1073
sV42D6R8Es3sI
p2435
I1214
sV-qgXNBRXZbI
p2436
I3007
sVzB1kOtZ_mos
p2437
I892
sVm1f2NWoHSrE
p2438
I1810
sVr_Cm0V8quD8
p2439
I2683
sVNYP8sU20-iw
p2440
I3235
sVzDmg_uP8kvI
p2441
I546
sVbZ6MJ2bElT8
p2442
I5719
sV3rLW2Pph6fs
p2443
I3270
sVl5io-nY4zjE
p2444
I761
sVrmeO9UnBeI0
p2445
I4176
sVcKERKeQUFDw
p2446
I1876
sVkcwPn_3GzNI
p2447
I934
sVRKh1O4y2m94
p2448
I2167
sVzfHMhv4r_hM
p2449
I4009
sVppm0VIoAnck
p2450
I4716
sVEtz5jqIN0wY
p2451
I1330
sVe7RThsy58Io
p2452
I1258
sVJ2BcbfwqXPo
p2453
I3824
sVIV2eL6f9MWs
p2454
I3060
sVXQ7XjsZL1uk
p2455
I4650
sVN7x1CdI6ZuE
p2456
I1240
sVB4Sci7tiUbw
p2457
I6701
sVI81ZESv1rms
p2458
I6114
sVPbS2-45XV2o
p2459
I4053
sVzH8lYG5bAPo
p2460
I2409
sVvEpnDzmV38w
p2461
I972
sVJf2iZ0R9aWQ
p2462
I1246
sVUkNmlTjpzQE
p2463
I4999
sVPsqsg7-wR_E
p2464
I290
sVQWFBXMF8mUc
p2465
I6306
sVwIcRG9N0MRg
p2466
I2319
sVeNIlR8Wnny4
p2467
I996
sVPDlfIJ2r6hM
p2468
I2521
sV1nAIx5V5P6E
p2469
I537
sVwEzWWT3x7Tg
p2470
I8843
sVjNe8vUSn-00
p2471
I7884
sVT2rh7vYc1i0
p2472
I3578
sV55AHzTR_i2k
p2473
I2769
sVF1rli-4p6XA
p2474
I2613
sVxqtl4y2oBb0
p2475
I1424
sVIsjZSmy9RH4
p2476
I13358
sVz4tRMYzAPnw
p2477
I9679
sVnNc_fVgcaGc
p2478
I1617
sVPOFVFNICwOk
p2479
I1501
sVHCHS9czgNeQ
p2480
I553
sVZ5ryVOkEsNg
p2481
I531
sVH-3rNSOVfuA
p2482
I5764
sVM1F9oQeEiAM
p2483
I2751
sVUbqVDzI7hpg
p2484
I6101
sVdHNQVssAs70
p2485
I691
sVkCkURhH5wsQ
p2486
I7070
sVlZNM_vzIZN0
p2487
I6546
sVFDYN7PUALf0
p2488
I3459
sVR_QhILHVDwA
p2489
I1510
sV-l1eGa3VCcw
p2490
I426
sVQdLb-BX4rQE
p2491
I5997
sVGW-lpWgxa-U
p2492
I3534
sVJUjqI8RHrSI
p2493
I764
sVkUbO5bBk5Wg
p2494
I2706
sVWITFM9NPd4c
p2495
I577
sVlis2oLzRsAk
p2496
I2699
sVtAq2-RR29AQ
p2497
I2225
sVOGSLwgUbSOs
p2498
I179
sV8jNtOlstVOc
p2499
I1997
sVMJ3vAmb85sI
p2500
I535
sVztYeS7BcgGM
p2501
I544
sVTNNr1yjy_ZA
p2502
I837
sV7vlpitPmBaU
p2503
I1339
sVtQeaZZGfLb4
p2504
I878
sVxtfRLoHqaeY
p2505
I7170
sVuC27zTNSdQg
p2506
I1144
sV_chytQFQ-v4
p2507
I908
sVpd0bC2XVbiU
p2508
I723
sVHqrHagHGub8
p2509
I3723
sVcfuuxqd5IJs
p2510
I363
sVn3JG3IYVQdE
p2511
I3554
sVPVMjDjq59QA
p2512
I874
sVbfwLIqnzrOk
p2513
I156
sV0vd5DX-LPmc
p2514
I1555
sV-YbF_0XYQg0
p2515
I1317
sVJo_cXkBNMJA
p2516
I859
sVoXibatCQQo4
p2517
I271
sVQPIJs7hIxpc
p2518
I522
sV-JNXp8A55s8
p2519
I425
sVMKk8GxXBFv8
p2520
I596
sV1VoNKxGhiUk
p2521
I6798
sVtCUdTjaY6vk
p2522
I175
sVwQ8Gbh3hpps
p2523
I2511
sV7Ps7vUMo9DU
p2524
I3027
sVhS8vGFowoE4
p2525
I2241
sVGGsc1qGEYmA
p2526
I12681
sVZ0OG-bizcUs
p2527
I4925
sVJrCpwnIOauY
p2528
I3004
sV1FP3z5oetdQ
p2529
I534
sVcHxBhbSVQOI
p2530
I1439
sVVRK7M9RWfzA
p2531
I2102
sVjO3acK9n0bE
p2532
I7265
sVxFxNiV50OuM
p2533
I1400
sVWk3-2MGr_vE
p2534
I372
sV0dewSQ1bmf0
p2535
I1009
sVIHDZ9HVEGJ0
p2536
I4477
sVNure93BCG6c
p2537
I4043
sVwzQ_bGjyfJo
p2538
I5603
sVS8ziBghp5Zo
p2539
I464
sVi-W7Yqp6IhM
p2540
I627
sVzaB7Ghe1Foo
p2541
I582
sVhR7SovHbWxM
p2542
I6919
sVtRFqkCqFiKE
p2543
I5455
sVRIju-UEsDsQ
p2544
I2756
sV22Ux-sC1Jx0
p2545
I1110
sVoqYuS_n4XgY
p2546
I285
sVinANpPHppEQ
p2547
I7973
sVHkWFQgpcJ7A
p2548
I1143
sV_8e9kMY3jmE
p2549
I465
sVrs98BumgdnE
p2550
I304
sVNDLlmc35kk4
p2551
I575
sVm39iB6OdZAc
p2552
I724
sVpCW-Ilw2Itw
p2553
I689
sV0Wan9ajw7_c
p2554
I1354
sVtHb52wXlynI
p2555
I3585
sVvSoXFl86Wno
p2556
I5965
sVW3pwpllm2R8
p2557
I4986
sVplRZhA1El0I
p2558
I1346
sV2UopzZgXJgo
p2559
I119
sVWQ8b7l931d4
p2560
I1412
sVJqQk8f8szA8
p2561
I688
sVG4TY2CJW8yQ
p2562
I815
sVRgq6YJSuBOs
p2563
I1201
sVRYOD3Rd6irs
p2564
I1965
sVTPCeRCywPXg
p2565
I243
sVpjJv4I4vGUI
p2566
I399
sVesiDMqOSQyI
p2567
I2493
sV_saPNnk0py8
p2568
I1878
sVt0ytLfkC-Ok
p2569
I1882
sVhfm9JHDm-2c
p2570
I3173
sVprTbHMsFcOc
p2571
I488
sV-mMMrXOTL2U
p2572
I759
sVli5wnLDGlb4
p2573
I630
sVw6WeRW_DGs4
p2574
I857
sVPILIK8cOexs
p2575
I333
sVOEgr3P-n7Qw
p2576
I2105
sVTqFKLEzPIVc
p2577
I812
sVvWeT2QNnnQY
p2578
I1243
sVbPXLsW1cTw0
p2579
I443
sVzL90RRZVMm0
p2580
I2309
sVpgCFi3A4HPU
p2581
I7208
sVnlUL8Vk5xAk
p2582
I3828
sVtexf5uWsfqk
p2583
I7704
sVy8M66s49ylY
p2584
I1036
sVhBI-BzJ0-po
p2585
I547
sVo-Z_LBrNXEQ
p2586
I1589
sVy5n65IA7L_4
p2587
I2434
sVvNSoyCRdOTs
p2588
I2516
sVjwkB2td9vrE
p2589
I2388
sVkR3Qw0vr7q4
p2590
I3025
sVH-MBUUOixaU
p2591
I514
sVnH3jcZ-S95A
p2592
I3465
sVeg6s9iXtcnE
p2593
I1879
sVecACt_sZs0w
p2594
I451
sVTCAsWHXqB5s
p2595
I1341
sVMvewaI7qwYc
p2596
I579
sVcjLu7G_jt7M
p2597
I2057
sVB9JAxeDuOgA
p2598
I766
sVJpHaWiQOiq4
p2599
I7172
sVBLFM89awEkI
p2600
I750
sVo08Ot62kwGg
p2601
I7626
sVYwJeiEEUA8w
p2602
I331
sVPTAbLfECOj4
p2603
I940
sVmvfvBAG739s
p2604
I2296
sVoc_txD-oOpw
p2605
I94
sVYScR0n3T8to
p2606
I1113
sVL-NPJ1j3oiE
p2607
I349
sV-qoBKqFZXME
p2608
I342
sViPiSHMeXK2o
p2609
I972
sVtNBnyPla6AU
p2610
I217
sVk7DSEbd8CHM
p2611
I3814
sVhOlbwqWCu-s
p2612
I1524
sVoIVwBkyW3_k
p2613
I4055
sVSucemgidbkI
p2614
I3413
sVVO8Kn-nOmY0
p2615
I913
sVssxeDO5Vsio
p2616
I546
sV-Mfuu8yNrGI
p2617
I1710
sVb91Z56JMZQs
p2618
I3767
sVDECPOwoJCNg
p2619
I2318
sV0V-WxkbYt-M
p2620
I204
sVV4N4OFWnCSQ
p2621
I4194
sVZbzUbGFn1XA
p2622
I796
sVWVpNtOjZ2zA
p2623
I533
sVvbbxC8a0Y-Q
p2624
I2221
sVDG3O4We5R1I
p2625
I1385
sVNfLC2ZkZD5Q
p2626
I2427
sVUdU0k7wsD0A
p2627
I1674
sVmq2TrNZ0_zY
p2628
I2265
sVK7hQvVBzZPM
p2629
I1243
sVfg2lIgOGMuM
p2630
I4343
sV1kK2_lpHaEE
p2631
I270
sVirYDm13ZsQI
p2632
I656
sV555HdQHE3j4
p2633
I344
sVh-l_85N3RhI
p2634
I2985
sVSWF65GyKC-k
p2635
I888
sVfwttdi4GWAc
p2636
I1892
sVCWdPj-XIUQs
p2637
I7646
sV8fAYsNFLlSQ
p2638
I2471
sV2-kIq3pctr8
p2639
I556
sVF4ozPCRxosg
p2640
I5513
sVcoY_Q0_i0HM
p2641
I829
sVWZK8PJGYhJU
p2642
I1798
sVi4TgqxNFM3o
p2643
I2874
sVeVmBsmvOKxw
p2644
I1379
sV7YpoiqOuaGc
p2645
I6061
sVchy8T-kRFSE
p2646
I810
sViIx_FHoTH5A
p2647
I967
sV1zvdZD_Hlds
p2648
I636
sV0D6PNx2au84
p2649
I4131
sV-WJwnl2T_4Q
p2650
I7405
sVMdoKaosib6U
p2651
I602
sV2vKPuBBQWNk
p2652
I321
sVjiFEMD1Qv6U
p2653
I541
sVN7mIfx6OnzU
p2654
I2325
sVYSWw9CRsm5A
p2655
I1805
sV-UIxNxlvapk
p2656
I929
sVBiaYGx6ymwI
p2657
I2137
sVILoopvzsAMs
p2658
I2357
sVZ8Xv-MwFo_c
p2659
I446
sVwGXv7eI_Fbk
p2660
I4946
sVcopWFp0oJSc
p2661
I8990
sV70WhcZxwzMU
p2662
I822
sViL7_lcl8EkY
p2663
I15465
sVzauvDnmpwX8
p2664
I2203
sVPQJmyVONORA
p2665
I779
sVEo033Hq-Tzg
p2666
I2395
sV3mW29k5qTZM
p2667
I261
sVbIjTD6Wpcb4
p2668
I816
sV01hi-bIJI0Y
p2669
I2104
sVssQv6NLVwcQ
p2670
I1644
sVZ5TsJxMeAHM
p2671
I2699
sVNKdNUKo6IaA
p2672
I3380
sVf4B-6mdIV-U
p2673
I4605
sV_d4jZb8ScA4
p2674
I777
sVQOWsgQMW8KE
p2675
I851
sVfNpCt_kH9kg
p2676
I2244
sV0S_yZerJKr8
p2677
I628
sVqMGFBLk9KkY
p2678
I996
sVmhZwNAOK_JY
p2679
I1575
sVCiJ_8BhusjE
p2680
I1659
sVUUr7c_0eo1o
p2681
I4706
sVEeImW5Drj3k
p2682
I398
sVioU4UH0n66U
p2683
I2410
sVkcNv9MZs-GE
p2684
I1943
sV1vBN_rntrpk
p2685
I1753
sVeN7cb8LUa4A
p2686
I893
sVKht6tfZMdPI
p2687
I3362
sVtPZViq9410c
p2688
I18650
sVuEFAhWwtgJc
p2689
I3569
sVE3-MjeVVNAU
p2690
I968
sVPT1TvZWsHnE
p2691
I802
sV3nQzbKPkmJk
p2692
I2181
sVtebk7ek19Ng
p2693
I572
sV6XtZB9ZjN88
p2694
I4736
sVY4NPI4wQ6nY
p2695
I4346
sVKmf944SeRbc
p2696
I2999
sVTrsZyebQvZ4
p2697
I2170
sVEQwGHEMoq2w
p2698
I1044
sVp0j_CPchYfw
p2699
I927
sVtvxIwuPnhaU
p2700
I297
sVwVbEzhnlxL4
p2701
I3236
sV-6R1xzC4dg8
p2702
I883
sVztxWILQHj_c
p2703
I1861
sV3xHQA_CnzhM
p2704
I3930
sVyXhMoP5oIjo
p2705
I2607
sVUwBa4aHd2wQ
p2706
I689
sVu0bi9idTFYU
p2707
I3966
sVcv8SWtnmqcQ
p2708
I5809
sVd3HMrBdRZIs
p2709
I891
sVrqfujWvAFkM
p2710
I505
sVYKmrHy5WocM
p2711
I3286
sVJoDKjJ_YEOM
p2712
I430
sVLBVd4qdTjuk
p2713
I770
sVbMdXw7-FZoQ
p2714
I1416
sVPJKCzHTKaQM
p2715
I3448
sVlJfTj9Y7N40
p2716
I4819
sVzmlqOdtDRaQ
p2717
I1892
sVhaXmy-KJYQY
p2718
I783
sVc5U1lczgaGc
p2719
I7279
sVkPbJCyybBTw
p2720
I623
sVWiIJVaHmdVM
p2721
I1796
sVUfJqJpvZPbg
p2722
I1763
sVwKdYav8Uwf0
p2723
I9201
sVgq5A_Kf14U4
p2724
I5390
sVUDuRxrBhRAo
p2725
I9803
sVqNG9yRApAhs
p2726
I906
sVJZmMNdII5o4
p2727
I9480
sVG_6YA0a7Mv8
p2728
I489
sVgOm5F1Z5CXk
p2729
I4020
sV3JtihFUmwuE
p2730
I2948
sVoVVwtdlAWh4
p2731
I735
sVw4K4EgL4QG4
p2732
I2397
sVV75zvozBrp8
p2733
I790
sVC-A7KcqS9xs
p2734
I2525
sVsLRNpvYdWno
p2735
I4087
sV6XAgjisI0GU
p2736
I809
sVEjapHl5svj8
p2737
I1283
sVlur4Dnp7fxo
p2738
I2856
sVrykI_dm6HbU
p2739
I2846
sVzDc3yLq6AQE
p2740
I1072
sViTfL3Hb7ULE
p2741
I2229
sVVmSJ6KiBDR4
p2742
I520
sVu6zcFD1Py7s
p2743
I4322
sVDvQsCWD6hik
p2744
I10040
sV-y9lRRi9NnE
p2745
I1215
sVp5gaFn18gXw
p2746
I2098
sVGe4x0M8b-XU
p2747
I3478
sVZ1Hb37NMao4
p2748
I2187
sVzd6KLbHEeQE
p2749
I3588
sVwoo4cKIJSRs
p2750
I5902
sVbpb12Q_YrAY
p2751
I1831
sVXNTCC_RjxV0
p2752
I741
sV0uTBxpgJJuI
p2753
I4642
sVS35TPdmerOQ
p2754
I270
sVwv90t3GCNDc
p2755
I713
sVfe59ufMn4Zc
p2756
I431
sVSZsVlr6Z97k
p2757
I3754
sVgng7CbLTNXY
p2758
I1436
sVywsuZ2PRc6c
p2759
I280
sVNLEmQzG3lMs
p2760
I1410
sVokTBkzRdedY
p2761
I386
sVletpfx_Ileg
p2762
I927
sVy8ONWGVYU38
p2763
I1915
sVdlvG-OxSP7A
p2764
I1099
sVHEFVIhPRg6E
p2765
I6426
sV2c-oX8ufBPw
p2766
I226
sVfj_03NGt9EE
p2767
I5169
sVe6a89zbIiE4
p2768
I1607
sVa80md7Hug1w
p2769
I6123
sVBgBQ4KgpLbs
p2770
I1423
sVmCKOUzeCVMc
p2771
I1083
sVek327GICYkU
p2772
I1438
sVktI3sFxu2f4
p2773
I612
sVF6OXd6j_iFM
p2774
I677
sVK9ZeugOafC8
p2775
I3952
sVKa1LZ_HL5mQ
p2776
I209
sVNYUiKN54qHA
p2777
I3940
sV2zSyb9aMPDU
p2778
I1350
sVWJJOPfucdSg
p2779
I670
sVPgHkyV4qacE
p2780
I6938
sVBqDtBYYBsxk
p2781
I2671
sVt2PjJAuHWeg
p2782
I7448
sVhZGFOBhtvCA
p2783
I1471
sVpl6fytcOoJ8
p2784
I8030
sVUKotm1ytg28
p2785
I636
sVGUGpberOu7A
p2786
I861
sVq6tJ9NY7rcc
p2787
I993
sVTJqfm0W14TM
p2788
I1347
sVC5lieqb4JTI
p2789
I395
sV8L_lr1c59sI
p2790
I6395
sV-kE_k3ailC0
p2791
I3715
sV_Ibr1-k9nQ8
p2792
I12851
sVDKIN_MpX_Ho
p2793
I2097
sVm9eclkVB9Pw
p2794
I2879
sVYi_B4Pbssuw
p2795
I1198
sVmm3l9yXAtek
p2796
I2229
sVm8UCFlCMDcc
p2797
I794
sVy59ic20fyR4
p2798
I2749
sVnyR47I3IiKk
p2799
I12328
sVJqr131Vt-dg
p2800
I999
sVf-52-92WG_o
p2801
I1519
sVx2bXv5O1X5w
p2802
I13273
sVS-byW5H0vwo
p2803
I667
sVX7CMVu7Nkko
p2804
I1674
sVHFi9burb_gM
p2805
I2342
sVkvNYGnG-WAI
p2806
I909
sVP6X6Q8KIA90
p2807
I228
sVYAdVEpBf_qM
p2808
I860
sVxNnR8CzfqdM
p2809
I2140
sVVPzNRcO81W0
p2810
I448
sVYFvJrCt-8ms
p2811
I451
sVEcGAXvWH8N8
p2812
I58
sV-gruAlxQu2M
p2813
I7518
sVcRADlL0D-Z4
p2814
I227
sV10JM_YStYpw
p2815
I1299
sV-tqFKio99ho
p2816
I2381
sVp-xZK7Zy3mM
p2817
I4360
sVcIdGImehQmA
p2818
I1832
sVoC5AFDGSysE
p2819
I3877
sVIOR0zScSbBQ
p2820
I586
sVtT5P3rulIQ0
p2821
I5923
sVUzyKr9z2e_Y
p2822
I3283
sVx__dMFMR4sc
p2823
I796
sVGn4zL8N06es
p2824
I1646
sVchKsd5gseU0
p2825
I1497
sVZSy00VTQKfA
p2826
I280
sVKisx2eQ4HcA
p2827
I3683
sVYpRDFH56TxM
p2828
I1783
sVMstCbRT764g
p2829
I480
sVW42E1r8SaZo
p2830
I1448
sVOz6S6ddzTP8
p2831
I1213
sVUT7SKy0Ur68
p2832
I262
sVNtrxL9JQa0M
p2833
I2194
sV_u0MEFbXefM
p2834
I521
sV2WIuwaezWxY
p2835
I1125
sVqvSbX_TBcSM
p2836
I3613
sVgioSsLK8OxI
p2837
I672
sVxZO21JaqwbU
p2838
I2192
sV-SQCCCGL7o4
p2839
I2692
sVQiTudER3P2w
p2840
I634
sV3ETnaT0WrFs
p2841
I773
sVOhnCXDNlpWk
p2842
I110
sVHKynameEy7Y
p2843
I3340
sVozTmvCNNaMQ
p2844
I380
sVB79gtuuXWdw
p2845
I328
sViVlY01XVSUE
p2846
I1979
sV1GwFBPb8SX8
p2847
I2593
sV-_NlReHSyZ4
p2848
I471
sVS9XIdPz20Qo
p2849
I1749
sV0QGtPTzwZi8
p2850
I739
sVIRFGVDAUMGU
p2851
I4748
sVEmQ5ZsdTcQw
p2852
I1076
sVOyBTOWFfxIA
p2853
I1819
sVXVE-dplN9zU
p2854
I4017
sVi9XNy5OHXxs
p2855
I10195
sV1S9aybZaqkE
p2856
I4412
sVJ3P0_E1PN0M
p2857
I1106
sV-R50rxfghjg
p2858
I298
sVmOMMIjQGBe4
p2859
I1933
sVWBwFgBrnNBI
p2860
I2355
sVIAEzjM1L8J0
p2861
I5602
sVIf64gkEa8fY
p2862
I235
sV7nqOlT-CVjU
p2863
I2150
sVzTXPT7gMonY
p2864
I606
sVhnoQvJzpdPQ
p2865
I8050
sVjyGwzdLwCrM
p2866
I2242
sVf-lYJ7NGm9o
p2867
I1941
sVtcVRekwMbns
p2868
I2820
sVc-sjtPHAKMs
p2869
I1426
sVZuglYoM7mBM
p2870
I969
sV8R64s1HuLLI
p2871
I3721
sVfev9t5JwKVI
p2872
I1056
sVKb4cLb2wqXo
p2873
I759
sVJr9x-sXq3NE
p2874
I816
sVrpdydIbuNmA
p2875
I2839
sVjHqkHVYQbis
p2876
I2048
sVtsGt_BVbKQ0
p2877
I657
sVlh6cMXSF72c
p2878
I204
sVopAWCJeSwek
p2879
I1349
sVCE_OQCdgrNE
p2880
I610
sV23eqjW5cKZo
p2881
I1167
sV3wCt5_px63Y
p2882
I1415
sVYSg7h2EUuYM
p2883
I1766
sViAMohj9by9w
p2884
I781
sVIq35JMCS39g
p2885
I2081
sVNpIAIMHxMuk
p2886
I206
sVmbkhkZiZqM0
p2887
I393
sVqn0TllmEF3Q
p2888
I808
sVG6XK69Ft12o
p2889
I1829
sV0RbuY3CskEU
p2890
I211
sVF5A_eMkCL0s
p2891
I1960
sVQZuN8Cu5rr4
p2892
I1057
sVLXtEFafleJQ
p2893
I306
sVj6eOrWG5A3Y
p2894
I1113
sVJyTKGa8UYmM
p2895
I330
sVwRLtqHLEC-I
p2896
I854
sVrnZCgNghItY
p2897
I435
sVBoVaO4Xu8Gc
p2898
I709
sVhapbELvEjRY
p2899
I1402
sVy3d5EGcEkXc
p2900
I541
sVGmGc6-G9zHQ
p2901
I1374
sVvQ8egh_wx0c
p2902
I5495
sV8OAAeULkoFs
p2903
I773
sVpiJ1gJUyXdY
p2904
I1104
sVkIVS8H8qbik
p2905
I895
sVqfoO_B12d60
p2906
I2182
sVGis_N96dUNA
p2907
I1078
sVYhvD9M63DBk
p2908
I5583
sVMwBuX793gVw
p2909
I1919
sVWHq7WhrGQLg
p2910
I3893
sVkh69POUPaH8
p2911
I903
sVBJUwW13uAZQ
p2912
I117
sV63shJiDZvno
p2913
I749
sVBycUjC6PVgw
p2914
I1798
sV0PPmIuulXfo
p2915
I937
sVgSZNuGFWXSw
p2916
I1716
sViJ6igm_w-Jk
p2917
I4244
sV8YDr6fo_xWE
p2918
I1914
sVva6kovt-CXU
p2919
I616
sVBo5_hqCpbW4
p2920
I540
sVC_BF_6vE_Bw
p2921
I377
sVsbcqojEqwHs
p2922
I8092
sVWUI-9jfayoo
p2923
I748
sV61Wy2DnJXC0
p2924
I1075
sVDl-YWRbRlBM
p2925
I5073
sVr9X-5oy04xE
p2926
I2569
sVUqc8skQ9co4
p2927
I970
sV3cqMVWO35dE
p2928
I298
sVbexSHCjoN7s
p2929
I4303
sVlgZDFDzbTu0
p2930
I4197
sVsrMXqeKlXg4
p2931
I4762
sV_v0u80Ic-5w
p2932
I2154
sVN5qpXGHPc8U
p2933
I3484
sV1Kq6ULUcUPk
p2934
I359
sVkls1v_cnbQo
p2935
I3355
sVkcUHI6kd2hQ
p2936
I1656
sV0rIuhd4sCRg
p2937
I1530
sVZ4kBNLcNqe4
p2938
I171
sVqCWyj4tiYDU
p2939
I1471
sV_-8M5u0Y65o
p2940
I2152
sVRuTMxHjXAuw
p2941
I1381
sVy3fqiM054og
p2942
I1598
sVmMSwu3qsjUI
p2943
I681
sVIdmPd-fwqpI
p2944
I8272
sVa4PZgOx7RcA
p2945
I3866
sVUrCaECTC-28
p2946
I281
sV1rTBJJZWgk4
p2947
I413
sVKXzU4yxaoxw
p2948
I7292
sVCVlck98CMG4
p2949
I662
sVLbp2VOyypXQ
p2950
I1247
sVTtmYr0zzKN8
p2951
I1286
sVd0OwHtOBkJY
p2952
I2013
sV_eUO-Edk38c
p2953
I2423
sVZgRNj_gYQ-0
p2954
I847
sVotc0ZZL9ks4
p2955
I1521
sVzDOzgLKI41A
p2956
I3112
sVqhnpBXXvoyI
p2957
I768
sVIeD-dHl3bUQ
p2958
I1053
sVxbHZSEqVJYg
p2959
I1818
sV2zZriUbUa5Y
p2960
I2019
sVWeZbRj2-p6Q
p2961
I1609
sVnzH1QTPVYxY
p2962
I2856
sVK4DWauRQsRo
p2963
I575
sVNVezZeoG2nQ
p2964
I603
sVfllCQ5UX7Ag
p2965
I1886
sViIsmwKprd3I
p2966
I9473
sVT1xAcoMWLQk
p2967
I7670
sV-miQHtfAWI0
p2968
I757
sV_INQCLRfCtA
p2969
I667
sV0SgEB3BCvGA
p2970
I2224
sVGO53qeslc60
p2971
I5735
sVQiE-6NbGs24
p2972
I4681
sVnzBr_iv25DI
p2973
I109
sVEImjNhescUI
p2974
I1910
sVwuq8Dzq5U0U
p2975
I897
sVqPdBSVj-f6A
p2976
I760
sV0oLlm3K6B6s
p2977
I226
sVqzpAAL6bNzo
p2978
I911
sVTrme1pRMji8
p2979
I2562
sVM3mH3JpOGIg
p2980
I7238
sVxegdrErbEI8
p2981
I1983
sVvcgka1KIuWI
p2982
I991
sVIEDHfeR277s
p2983
I3802
sVtpxAvTAyqoU
p2984
I2420
sVpnbdv6Kwxs0
p2985
I857
sVeLq543n5uJY
p2986
I238
sVugJy_fqT2Dk
p2987
I500
sVWvDqB6NDy9c
p2988
I2907
sVk07rAfcke88
p2989
I2366
sVDP2UYTPappI
p2990
I1447
sVf_EeM7ROsC0
p2991
I744
sVfy3L-IwCPoM
p2992
I3563
sVvDIXqxEu4xw
p2993
I4344
sV-sf8idyg5CM
p2994
I946
sVID5KgvJzJ9M
p2995
I1006
sVHomeN4s6XLw
p2996
I3924
sVqG4i1_2vFZ8
p2997
I753
sV3b109x1Xlo0
p2998
I2065
sVJ6zFIlnxFds
p2999
I754
sVS3X_zq_2T8w
p3000
I6511
sVxht-p5bIzh8
p3001
I425
sVREGTsdZgKEs
p3002
I1299
sVMlAvILrmw6I
p3003
I4505
sVx0XDdKr1RvU
p3004
I984
sVGrN_i9HLaOs
p3005
I3688
sVBa9aVpmm3uo
p3006
I1528
sVrdGBegMNVUs
p3007
I1191
sVbp-nl8VF2IA
p3008
I12799
sVQEyC85cIllU
p3009
I4809
sVs-UakLcT2Mc
p3010
I1784
sVf5Etb79UZpQ
p3011
I6040
sVB8VaOsR33kQ
p3012
I6602
sVEeT9neANyaY
p3013
I3500
sVrTkQUdqzEDg
p3014
I495
sVrOp4_z888xI
p3015
I1107
sVfCO6cJNQlB0
p3016
I1683
sVtff1wJ9w3a4
p3017
I618
sVGOFJ1zYPtNs
p3018
I2121
sVlKl-sk-a3no
p3019
I547
sVz6wxXjYRyuk
p3020
I899
sVYBolgM4RZ2c
p3021
I3864
sV3r4CvYo6tWM
p3022
I3379
sVQmKOAXhezjI
p3023
I1382
sVUWFWOWznhjQ
p3024
I4163
sVlRMBWK_HL38
p3025
I1694
sVqLjGBW6hxKI
p3026
I3993
sVdmlE93_V5kM
p3027
I559
sVgkvJNlDvpus
p3028
I1628
sVlDxSiRdNMT8
p3029
I2413
sVgG9F6XRi3xE
p3030
I6604
sVOPl4CFuUGzs
p3031
I310
sVGeN1RxpU2Q0
p3032
I4608
sV1UMaCbZx3Ag
p3033
I5154
sVePLSp0ENBGc
p3034
I2766
sVHDs8nQdZ4wc
p3035
I327
sVwqGvW32Dflc
p3036
I233
sVTI178VCPZRE
p3037
I1532
sVeYTONj006co
p3038
I1552
sVbVIStT6uoKg
p3039
I1848
sVs5ISTCCEGPA
p3040
I718
sV31PmLI2_2Ac
p3041
I7287
sVtA1x4P7bnzI
p3042
I7208
sV1u88HrLz_k4
p3043
I1348
sVNi0mnXBznDE
p3044
I1128
sVdinz1x4iHjY
p3045
I2508
sVy-5lcPcz32E
p3046
I13020
sVLPs27aj7eNk
p3047
I649
sV3K2IqjGmd1c
p3048
I925
sVd01WHvpcSJk
p3049
I5589
sVdd8u3zYL4JQ
p3050
I517
sVyntk1Wxk_aQ
p3051
I5122
sVHfPwk5SR7Yg
p3052
I2308
sV1LrHuaLVw_Q
p3053
I4804
sVtxarKKvXnhw
p3054
I1896
sV11d_QiocQqg
p3055
I648
sVU-MNJjdKpLY
p3056
I1810
sVlcrRMYo_580
p3057
I637
sVYAf7ySaJ2_E
p3058
I1520
sVy7iT67EQkho
p3059
I1553
sVpI3OpNTXQLQ
p3060
I1292
sVjMDVfQQPFHE
p3061
I1610
sVJnI2T9oNyPQ
p3062
I2647
sVPdtQ3NTALzs
p3063
I724
sV0qCD3Jdw_ys
p3064
I302
sVTIu3xqLoPmQ
p3065
I651
sVmdd2sP-6B40
p3066
I1390
sVHFORSZw3q5k
p3067
I3583
sVvM5uqjLjQFI
p3068
I1321
sVp7ekXUdXxrs
p3069
I4787
sV-MNcDq1dw7M
p3070
I564
sVXQfmUjkp_Q4
p3071
I1866
sVxODwLiDFnkU
p3072
I2725
sVVuwIK02Rg88
p3073
I2201
sV1Y-81NlDroA
p3074
I2597
sVZbFr-5I58jI
p3075
I751
sVJ08Jgp9A0uo
p3076
I2365
sVZKPn-MtwxJY
p3077
I2425
sVpE_DoKyw-Q0
p3078
I2452
sVMPwg5uW2pm4
p3079
I1249
sVpSY3dBjq_E0
p3080
I676
sVFCkmwaMUJw4
p3081
I1114
sVGlFBZ-D9p3o
p3082
I1062
sVnIZS7yzxqX4
p3083
I3158
sVyaXT16GM654
p3084
I93
sVjvCeDweSozg
p3085
I7379
sVt9miaoQeMsU
p3086
I2477
sVexkgtW5ciPE
p3087
I219
sVY9MQ6UCS7sQ
p3088
I1731
sVyJH050Fjiiw
p3089
I1922
sVxbmzSLhsPrY
p3090
I1151
sVVjNQTDqWN6Y
p3091
I2575
sVk1Xo6aOb2Io
p3092
I5246
sVUH-WuV4Z2qo
p3093
I2698
sVs8nWsDfhHos
p3094
I2148
sVfeci_HyjFDI
p3095
I858
sV76MLpCwigsw
p3096
I4309
sV0qWV7-al7iA
p3097
I693
sV1uL25kL7jHw
p3098
I1256
sVWJh_mw-S3js
p3099
I299
sVCldf3iZGGc0
p3100
I2989
sVSqOSR3IpXV0
p3101
I1936
sVVVDdGFG-tGY
p3102
I743
sVw4qzN8xYzvY
p3103
I1641
sVsmLJRzKZRWk
p3104
I298
sV3GloLkPd0Gg
p3105
I3739
sVnLwHxxLRq0A
p3106
I5130
sVtkzKr3XAtqw
p3107
I920
sVBechtFZRWFI
p3108
I3599
sVbUmFiCzDfrM
p3109
I4763
sVbArlk5qG12E
p3110
I2129
sVjrjBUTmGX6E
p3111
I713
sV-WeZnYoAJOI
p3112
I1190
sVfZdvDH-XZiU
p3113
I867
sVIiR0z6vHtd4
p3114
I2741
sVPw7VvnSEZFE
p3115
I1182
sVGYuIsHEGV6o
p3116
I5034
sVoUiNT5me8VQ
p3117
I3823
sVEi2iMkRZNNw
p3118
I5483
sVHfkg-xRT67k
p3119
I849
sVkC4mLylCL7g
p3120
I8312
sVJzlE72l7PSk
p3121
I1093
sVD-_R9sHM8io
p3122
I594
sVqQQk---tWQ4
p3123
I489
sVdjIlgf2IjX0
p3124
I7201
sV8FsL5LLtUac
p3125
I1265
sV7XU0FyR5Qhc
p3126
I927
sVjW0ANcKixHY
p3127
I625
sVekyW57_yrMM
p3128
I1501
sVcu_H7O-Ge-8
p3129
I8024
sVXicOVjYk8Es
p3130
I1484
sVQVHRdpQu5as
p3131
I9415
sVBQDA8-cH8Eg
p3132
I6993
sVwxoJJg2TjSg
p3133
I686
sVZp_-efBEAB4
p3134
I7984
sVWtoRFem8EGs
p3135
I1907
sVh4x49ftVk3s
p3136
I3460
sVxZd1SSGy1P8
p3137
I1798
sV0ZkZhR7F7Lo
p3138
I1504
sV8OgYPaOoPuM
p3139
I1379
sV0pmqdrH6OFs
p3140
I1214
sVuqoA1Vlzl1I
p3141
I173
sVpB7btxcI9A4
p3142
I1264
sVKZtjk4ROnhA
p3143
I1324
sVx2ntZ0538hM
p3144
I623
sVHQg0ESGFDds
p3145
I16271
sVnURn8f0jeuc
p3146
I987
sVzWsLXeACLUk
p3147
I2434
sVGfBrPN2bLKs
p3148
I1747
sVqhJFvOnjTEY
p3149
I3006
sV82HViGaRwpw
p3150
I545
sVc8XNiz9ASwc
p3151
I1527
sVpwlc9UPH7NE
p3152
I2379
sVLSoBs5aRtgI
p3153
I385
sVcvrvyFDl1jM
p3154
I1555
sVx-xZ977wqFc
p3155
I1501
sVRh7MroBguTM
p3156
I2092
sVp3Rhl1bW38I
p3157
I4089
sVTSmx2O4BbZI
p3158
I1758
sV0znLZAs0eKA
p3159
I1005
sVodpWKTGO8nc
p3160
I5268
sVDhMV0OWtaiE
p3161
I1217
sVr_ycCAiJ4xg
p3162
I239
sViUJlba52574
p3163
I5992
sVCL2Lx0ZvGeY
p3164
I2854
sVz81qRXw6ZHU
p3165
I9300
sVKdefTTr1Z8E
p3166
I2222
sVEdVu9bkVvdQ
p3167
I1888
sVl1XYpUyhw4A
p3168
I3492
sVrUh3E_U6R3g
p3169
I1195
sVN-coweRGKdQ
p3170
I2729
sV1f4XJNclck4
p3171
I3659
sV0CXPF1jl_Lw
p3172
I2695
sV1OaD3d_pCbw
p3173
I252
sVmeWeUZmK6Vc
p3174
I8333
sViru2Q_EzgcU
p3175
I1083
sVwZSuUZKCJWw
p3176
I3353
sV1heI9Qj9dl0
p3177
I2752
sVFmOqvFoDRjQ
p3178
I268
sV-il6LgZdrjk
p3179
I4688
sVropygXWJIQI
p3180
I2246
sVEyQAqDrKheM
p3181
I853
sVhFpohmW9HjY
p3182
I1486
sVC3E__jEVxio
p3183
I2376
sVBXkcMwKQY_Y
p3184
I1564
sV-MpxXh4TGyg
p3185
I12581
sV_2da_j2wKuw
p3186
I6469
sVKMksAV7-Zck
p3187
I457
sVjxDThihDKLY
p3188
I1938
sVsBsNfrTeF-A
p3189
I361
sVU5pmfYcdvVI
p3190
I4924
sVYUq0aUF4uUs
p3191
I264
sVfpw57_B0X6k
p3192
I3593
sViBzN8NggHts
p3193
I718
sViz4mo23MXCk
p3194
I5061
sVwj0iZ8UpaK8
p3195
I2095
sVWyKHe3Blf_4
p3196
I1017
sVXaaG2Eqi3vw
p3197
I1893
sVhdNzib2LZtc
p3198
I566
sV2NNFgQY-Enw
p3199
I1406
sVEUHTiZ-yCXY
p3200
I104
sVnNyJIkRuG0o
p3201
I1206
sVelyraFfHF5s
p3202
I2935
sVB6eU2E8Qnpc
p3203
I484
sVKLO3eSFWKAY
p3204
I1535
sVtyUVtLirzKU
p3205
I7172
sVnFn9nEzjPGU
p3206
I8150
sVYHqcos2Kmao
p3207
I1762
sV1fjm4EFOck0
p3208
I793
sVxmRxhK2k1Jw
p3209
I5320
sVkU3Ve6Qbxuk
p3210
I3593
sVkotws6VVGgk
p3211
I234
sVC7a22jmDNsQ
p3212
I1186
sVZrLv1DGW2_I
p3213
I6721
sVDl0_kcjg6D8
p3214
I1544
sVGROVH43x1Dg
p3215
I1053
sVehdbOFqA60I
p3216
I318
sVflDS5iT5R_k
p3217
I376
sVwquReAH8I-w
p3218
I3707
sV37G7tY43O4Y
p3219
I85
sVTHFDzndenqM
p3220
I4057
sVTBDCxsI8jo0
p3221
I2693
sVLOjkDPafLNA
p3222
I1968
sVVXPK_KEGAkA
p3223
I1095
sVkMgS7TpvWME
p3224
I6787
sV0YJxXyCeFeA
p3225
I755
sVC8LKjy0SKdE
p3226
I1093
sV-zEXksHQc6A
p3227
I1051
sVn2m3SuC6brg
p3228
I957
sVSCY4Yia55a8
p3229
I771
sV1UOyF1IFalA
p3230
I286
sVOxwndSIcDko
p3231
I1544
sVPtPfnoGInck
p3232
I2353
sVLISYQefYA2o
p3233
I444
sVfwkZXerYSWQ
p3234
I5924
sV2S-CZf0XFRw
p3235
I2697
sVJvYLEzboZjg
p3236
I1460
sVFJmc-aWOvPg
p3237
I2823
sVg1OklJs5ZgA
p3238
I159
sVXFnv6XDajZQ
p3239
I6666
sVDK7IFUB6Ei4
p3240
I3177
sVMLEtCJ3S1Wo
p3241
I798
sVHJ-Fqt3HbGk
p3242
I981
sVPXHFuuFM08c
p3243
I900
sVsNI0bLtFzxc
p3244
I1099
sVirvW9rlX36M
p3245
I3045
sV-KyJApAwKug
p3246
I6001
sVmfHVQfXoUuI
p3247
I2465
sVzrb8XWG6qXM
p3248
I324
sViGupfGLig_Y
p3249
I7423
sVoqC5R_HDn2s
p3250
I938
sV1GmLltOvrvw
p3251
I1061
sV_fb1bq1768A
p3252
I995
sVJqaPkafv1rI
p3253
I287
sV7sbsErr9cu4
p3254
I218
sVOscH-W6hpBw
p3255
I3409
sVI7GodVF-5iA
p3256
I240
sV36L9qnH4T3E
p3257
I1151
sVhBzot92HRig
p3258
I1052
sV8PMLDc5b6_A
p3259
I1131
sV1fkOYUKtQyI
p3260
I2223
sVB9bcJeSu4PU
p3261
I2405
sVFiS2b-pYsPU
p3262
I2018
sVrg3KOmgTkGg
p3263
I1479
sVm1oeOZ5MRdQ
p3264
I5987
sV7Q6YMNbZjxs
p3265
I2139
sVHoMNXwYosHU
p3266
I719
sVGLYPpFCaEpQ
p3267
I1971
sVJBUkLrj6bjA
p3268
I1626
sVE2K9YoqqQwQ
p3269
I1117
sVsbfHdrFoEpU
p3270
I4065
sVxaEk1JBzVvA
p3271
I10480
sVgL7DHadbyHQ
p3272
I1245
sVH-cpqaErHHs
p3273
I1474
sVZL0LzEdjruw
p3274
I990
sVH0xNO8LpAf4
p3275
I436
sVW6gspf8RIR4
p3276
I7052
sVml9IEzc8DoM
p3277
I4426
sV1Kd1hhhBx8o
p3278
I718
sVHOoEfyMppSI
p3279
I1209
sVjKhAYuZyQCE
p3280
I4026
sV2JzOIryU-A0
p3281
I283
sV0R2vlCPga04
p3282
I4470
sVi0z9u8AVoSw
p3283
I5068
sVGKgIy0_L37k
p3284
I1149
sVxdZTaqeRvNg
p3285
I2905
sV_dZU8SWR5Fk
p3286
I3583
sVp3KV_Zjzgks
p3287
I7133
sVTcEaVi2esVU
p3288
I2184
sVGFKPpDEkdqo
p3289
I2011
sVSE7Oy61YBGM
p3290
I235
sVTCIi3Wu_Lsg
p3291
I1849
sVU8dpPMGxvtU
p3292
I709
sVk1HP0pg8rcM
p3293
I5935
sVRWm2zRpSo9E
p3294
I4007
sVydi7bPkQ30g
p3295
I233
sVe1W34K1Wc88
p3296
I569
sVJrea5ZFDhZM
p3297
I1015
sVufB-aLq1rvw
p3298
I943
sVW2Hp0GWdzW4
p3299
I1461
sVGzrOQoX11bQ
p3300
I1130
sVP2ZEdBWio90
p3301
I2211
sVtXHD1LniE10
p3302
I1013
sVturSgyO4gFQ
p3303
I688
sVDNP6drpCFfQ
p3304
I1096
sVyMHEsivCznY
p3305
I3063
sV27SadIsIhZQ
p3306
I6574
sVsAPa-sS_xak
p3307
I3349
sVsFh6ygMWD0g
p3308
I615
sV8Pi3UED8hEU
p3309
I1598
sVeSscGGcwsDE
p3310
I2301
sVCjkhL9TtlZc
p3311
I2076
sVbDjqprCDlPI
p3312
I738
sVhACYaMjLzT4
p3313
I1053
sVGFHk1Ne5-Yk
p3314
I1907
sVJcPWfarKMsA
p3315
I413
sVmHPo8lCJPDk
p3316
I420
sV69TmdbDlBaU
p3317
I665
sVl5daAge2XJc
p3318
I242
sV3vTCMGkcYqY
p3319
I1779
sVG44Hihuj8LY
p3320
I5720
sVVFZQ9hQcXtg
p3321
I6805
sVwozYciyvqlA
p3322
I1212
sVNdtfM_lZ7QQ
p3323
I2183
sV0EQO5emXTzc
p3324
I1204
sV_b_ZvYUeMtc
p3325
I694
sVVuxJ6eJPX4o
p3326
I6142
sVnfpdw_udamo
p3327
I612
sV2n96QzfzVy8
p3328
I1345
sVL9FYe6hI6cU
p3329
I6124
sVICSG3Immysg
p3330
I739
sVzvGFQYilBK4
p3331
I650
sV85aZJEhAN3Y
p3332
I3801
sVBq0c4d_KOSw
p3333
I2518
sV8j-c75lsjFA
p3334
I2990
sV_7At9SRfKMM
p3335
I258
sVoPkdPRf6d0g
p3336
I1337
sVuiz3zENkJR4
p3337
I1902
sVeEqFPJ8hhfo
p3338
I5484
sVBMkKunZXUUI
p3339
I1856
sVFqO2SG3_8qg
p3340
I2159
sVhDIXYRBIVQ8
p3341
I1527
sVriXuhjBvt5s
p3342
I1040
sVBilf6HuqLYY
p3343
I3447
sVOwmc9efMoBI
p3344
I415
sVp_NfPS5h4k0
p3345
I1700
sVkrQHTvRqK8g
p3346
I419
sVJJGgi3ZcIg4
p3347
I4811
sVGF3GrEt040o
p3348
I9929
sVXQLj5F-r_-w
p3349
I5557
sVD6vCXJAzPm0
p3350
I1638
sVczrHfDZo0fQ
p3351
I1114
sVjon__aJj9io
p3352
I3345
sV83sJe4vr5k0
p3353
I944
sVetqsaZlRt7Q
p3354
I1099
sVBi6U_DiM0f0
p3355
I628
sVHvwGoph1kqM
p3356
I1587
sViB76VvtTGmM
p3357
I8398
sVJ_121w_zFo8
p3358
I10347
sV0qK4e8Ts3s0
p3359
I7134
sVUwZo7U_98Lc
p3360
I879
sVupsLZ1lYOlA
p3361
I954
sVlDXqF4LOxsw
p3362
I3974
sVi_p90AisxQg
p3363
I1963
sVJRf_LLxITi0
p3364
I6028
sVScYc2c8KuPk
p3365
I2630
sVSMbPqBQ8uR0
p3366
I2455
sVSmd6XQMNqP0
p3367
I1726
sVnLupoqRqvwo
p3368
I13115
sVZLjmFi0Ogjo
p3369
I397
sV10IQS2X6DQo
p3370
I30181
sV-L3v8-poBa4
p3371
I3961
sVJHiBeSA9nT0
p3372
I3574
sVCd8tKKAigOA
p3373
I2021
sVqm1SLtlb3So
p3374
I61
sVjE8Gipcj1dY
p3375
I798
sVcJpobvCNTpA
p3376
I181
sVPKZKRyWJ8Nk
p3377
I1011
sVdymYp1HQ3RU
p3378
I7167
sVIsLOwR0cqe0
p3379
I2896
sVzPvo32M6KBk
p3380
I2699
sV7X43qmHZW8A
p3381
I1821
sVLgllM4R0NY8
p3382
I2264
sVe8HF63hmYRU
p3383
I268
sVfO5q3ss6STE
p3384
I138
sV3dB3u97EJ0o
p3385
I1168
sVFbpn25P-8Os
p3386
I1556
sVw-QfqjU4xGQ
p3387
I213
sV_IDTr_0WroE
p3388
I1583
sVR1n6kapApGg
p3389
I1233
sVBju2zFHRacY
p3390
I1066
sV1HkloCaFwyo
p3391
I911
sVG5Y8lkL5hMs
p3392
I3802
sVuyj79Vb6evw
p3393
I4323
sVgkfowJiZUOg
p3394
I1261
sVe3MzNNDkfhc
p3395
I688
sV_HatFYTM2VY
p3396
I296
sVwDIRwQckvj4
p3397
I677
sVN0HXDp90E8g
p3398
I1272
sVFErjD4B0twM
p3399
I1333
sVB9yJJB_07bM
p3400
I1057
sVMCZffkY_2rM
p3401
I4003
sV_i5YkcYMJjs
p3402
I981
sVbFIQq1_6eVo
p3403
I1076
sVz6p0MqHWHhQ
p3404
I462
sV3_P-RqImL0U
p3405
I103
sVe7wf1Mducw4
p3406
I442
sV-_ZKKDqRQvQ
p3407
I1803
sVyJpJK14lqUM
p3408
I462
sVLFBIUv6Ywlg
p3409
I2714
sVTQ6RtUBGZQE
p3410
I260
sVl3lAZyLQohM
p3411
I1643
sVpsidIm-v0Fs
p3412
I3240
sV1eJgWtyh6gs
p3413
I1174
sVJQYTzHawbdc
p3414
I1472
sVWzEQWBKIgd4
p3415
I7981
sVyBAjjP4DIwk
p3416
I12681
sVWdELctTDnRk
p3417
I1532
sVGdtfsLYCQcY
p3418
I152
sVJo5AlcvKeL0
p3419
I378
sVYmACSpCyPHM
p3420
I824
sVragBm6vMXTo
p3421
I2237
sVLbLTedaFlkI
p3422
I1842
sV2uoXsTKiuDs
p3423
I896
sVLMrB7ibq7ws
p3424
I372
sVqaBp1jPCFFw
p3425
I5987
sVmVzGAUVnhJk
p3426
I1212
sV08e5rB2zFPQ
p3427
I4383
sVqbtpEk68UJo
p3428
I2637
sVDql3tuaB_Zo
p3429
I1597
sVtDEJM__E89A
p3430
I4034
sVrisbLB7X6OE
p3431
I579
sVypg5jgwkIY8
p3432
I798
sVdqvKLvRqxoU
p3433
I3382
sVvZEx9mMyXFI
p3434
I2526
sVXvm4IuJJryU
p3435
I1476
sVokpxWyGkx0E
p3436
I803
sVk4oVkDIvibM
p3437
I1312
sVBaHOK5IZGos
p3438
I430
sVMqvhbrZj1Mk
p3439
I2400
sVXJu1WSoEyEw
p3440
I2966
sVRIIhUcuTKdM
p3441
I629
sV1LmTnluVNhk
p3442
I4853
sV1wBYmhN0Uqc
p3443
I1025
sVeGuEMTxktRQ
p3444
I905
sV3ceacffV5TA
p3445
I1186
sVLYqIZJhjKqg
p3446
I1743
sVs9DK_1iCovs
p3447
I451
sV60wUffKcrbQ
p3448
I994
sVszyWJuj2JII
p3449
I287
sVhtNkUYkuctE
p3450
I2218
sV8dVg699u5Ds
p3451
I270
sVvGq7eF19sNg
p3452
I9503
sVVWMsYXhX-gI
p3453
I963
sVxyejSXnFfCc
p3454
I1142
sVFq17uuKC0Ns
p3455
I156
sVnO7CYd-XyVE
p3456
I3949
sV_K6mi38yvPE
p3457
I754
sVHRQ5FuJnyT0
p3458
I270
sVSPIjkzti9cE
p3459
I2163
sVaQhiSKYidCs
p3460
I252
sVwmyuAsrSwcI
p3461
I1603
sVMjNhl1JxmYg
p3462
I2586
sVVhNxmxf_mAo
p3463
I330
sVEsAiYq6eF7s
p3464
I2731
sVKI3qSsBTTWI
p3465
I724
sVJzsXVIPDjsM
p3466
I2726
sV02VsgjvoBsE
p3467
I775
sVbM7q_P9lPTs
p3468
I2913
sV-RLHh9xmWOk
p3469
I3474
sVu5LIMLFtguw
p3470
I699
sVDSXWo20ZD4E
p3471
I924
sVBTansu5a45s
p3472
I3172
sVKafp6BZIlYE
p3473
I2675
sVdJ9BhcHoxqE
p3474
I1362
sVPNexYgsSTZk
p3475
I3422
sVVYZkvMQ3FJg
p3476
I1442
sVdLldBO9gdSU
p3477
I596
sV_M14kjXBFgk
p3478
I1314
sVPjYIhtlcF8I
p3479
I778
sVqcbaV04cj4o
p3480
I1128
sV3OiuJD5wfjo
p3481
I1800
sVTNTAtUAbvA8
p3482
I337
sV2cKQWqTe-68
p3483
I3705
sVFD3VLyQq9Ig
p3484
I7608
sVCfDKGOkhkaA
p3485
I2428
sV_FCzKXLZ74g
p3486
I2756
sV02RM-DNDfcY
p3487
I1658
sVufu0i4AcXqM
p3488
I853
sVG23q2mSJadU
p3489
I4788
sVttYB5MVuz9U
p3490
I240
sV6x7e2TzU1LA
p3491
I1526
sVjDMkZ-mt0tI
p3492
I582
sVWgOX9HsNG6M
p3493
I328
sV2-S3c95g6xY
p3494
I4335
sVkOW1a-pDLDs
p3495
I2044
sVnzJbdoi_tBk
p3496
I2504
sViOICkwfLbbo
p3497
I6160
sVmwns0iBYlQo
p3498
I256
sVFoT4zGoEuag
p3499
I832
sVgBGkozHK6RM
p3500
I3798
sVQFNBKjV2AaQ
p3501
I5564
sVg8ITJtzQXHM
p3502
I678
sVUEfLty9F71Q
p3503
I1967
sVv2cC9JIjVIk
p3504
I1032
sVprE70fTcn90
p3505
I219
sVYX4xccTkH9c
p3506
I561
sVuvunJQFlVao
p3507
I855
sVjv7AzwFuVYE
p3508
I1142
sVKXs-h31GJt4
p3509
I1998
sVtXgVMvj9QRY
p3510
I10407
sVdXtQuOnEvP8
p3511
I666
sV_TeMqe6MYt0
p3512
I1112
sVos-Ew-kxJao
p3513
I11586
sVmYTUfav69_A
p3514
I2696
sV42rzULyT67A
p3515
I603
sVSzptysea19M
p3516
I2083
sVrrGwPLyCefw
p3517
I164
sVHu5jSZsMDXc
p3518
I3779
sV3EqKrrXADx0
p3519
I3559
sVLhWQnaycOwI
p3520
I932
sVFkPiu0C-FhU
p3521
I5424
sVt5eUYhxZGTY
p3522
I973
sVMRGwl2W9KvA
p3523
I2145
sVYCI3MjXgA5o
p3524
I896
sVbfJq9nflCbs
p3525
I2400
sVK_0ydWtyuNQ
p3526
I1674
sV3MFycwQ48ag
p3527
I1260
sVGc0kKFfk5Xo
p3528
I1426
sVNPwCfYzAAiA
p3529
I617
sVelszaiZ5y94
p3530
I1342
sVNv2g7F9k9ZA
p3531
I641
sVJnMTLNmfhEI
p3532
I440
sVLa6hzCm2mfA
p3533
I5329
sV44wyEoU_uQQ
p3534
I14815
sVje_K00tg36Y
p3535
I792
sVOqw9T7Bf2TM
p3536
I5049
sVDwblb0AclnQ
p3537
I2372
sVrh4R_0u07mU
p3538
I1234
sVRcwZNUYP3tg
p3539
I5742
sVDvICte2sGg4
p3540
I1711
sVXnj08btN3M4
p3541
I2277
sVDiY592_qOL0
p3542
I10185
sV79KZLe2NXw0
p3543
I1687
sVNtmWUgfnrVM
p3544
I7143
sVfeEDOL53GkU
p3545
I776
sVuXjOWIoGSnA
p3546
I308
sVslLcYgSzMkI
p3547
I231
sVzIS1qV3nrFo
p3548
I1444
sVmIvPgdbGPV0
p3549
I2734
sV-uuDiQU1wOM
p3550
I687
sVvdnFbeTFez4
p3551
I2741
sVeubvFBB3w5U
p3552
I2125
sVyY51I0ekW0s
p3553
I667
sVNmxr_JZ-Ta4
p3554
I987
sVo1qHJyrQeOw
p3555
I4293
sVI4AS_BKfIqg
p3556
I1990
sVG8j05qm8MsU
p3557
I2698
sVN8wM5ClQgPk
p3558
I2389
sVfh4mBw7QrYE
p3559
I3083
sVd2rb6-uy_00
p3560
I6021
sVSiPL1tsR6Lo
p3561
I1260
sVek0voHjDbPM
p3562
I381
sVsmEDB0eHJbY
p3563
I628
sVU5ISgczyw-k
p3564
I3612
sVhJyjZbSgch0
p3565
I10187
sVLGob7R6qRlE
p3566
I1096
sV0RAHikS9fvQ
p3567
I1663
sVhh_FkCb_ewI
p3568
I3867
sV3J1HUrUZyDI
p3569
I4469
sVoZaPF8JvVPc
p3570
I8737
sVk2RTFQTAUko
p3571
I2793
sVhAcEbP9zgCQ
p3572
I395
sVUWa4wdcAIIs
p3573
I973
sVwAFNWnyuPco
p3574
I1279
sVNEHLDRq4XHY
p3575
I1238
sVDLoOjN2-dDY
p3576
I2812
sVXAM79sXqzMY
p3577
I5322
sVmTmx16lI-PM
p3578
I1882
sVST-IpxpKUZ8
p3579
I465
sVxNP0TtcKbkg
p3580
I680
sVoyxE6si4iPw
p3581
I1591
sVxm_q5CPK6Wk
p3582
I14167
sVfZrX7GvDAgs
p3583
I1990
sVgIyARRxCmxw
p3584
I668
sVFAEaGsbSMog
p3585
I603
sVHNt7GCvV13w
p3586
I326
sV41_9GHoDy3Q
p3587
I4534
sVcVY7GrfPUTo
p3588
I19939
sVc0NPI1zcJew
p3589
I1656
sVpVUAmyrQ3f4
p3590
I4888
sV7ZBt1ICYLVQ
p3591
I1282
sV0U2JKaR-r0w
p3592
I3314
sVqKgRIadJY8A
p3593
I4654
sV1cg30vOw664
p3594
I4292
sVjHlag-6ques
p3595
I3135
sV1o1SsjxXRic
p3596
I378
sVi-V7FYtbqTc
p3597
I578
sVU7Z83akACwc
p3598
I587
sVFRgUl4AEiJg
p3599
I1555
sVcMjYr50BOMs
p3600
I381
sVfJEaKeJ61Hw
p3601
I636
sVTg3DYzzORRQ
p3602
I1524
sVquGF-Tcj34M
p3603
I2066
sVnjyxOQJlNxI
p3604
I5274
sVg-CEqgTBRL0
p3605
I834
sVC3404YHK0BM
p3606
I928
sVpo2-Cx5gUgY
p3607
I2210
sVmzzpiZ7Bdhk
p3608
I2158
sV7RbGCYm5fdM
p3609
I995
sVVDeTCtgDfgA
p3610
I3821
sVDAwxDOWilQs
p3611
I2390
sVUY-jKq9rxGU
p3612
I1182
sVUO0VXpBgX5w
p3613
I82
sVhkpdF6lVsPw
p3614
I1188
sVwbIKTpfhvrQ
p3615
I3118
sVQ0pRlmZrgR8
p3616
I845
sVLc0ZO3DgrTc
p3617
I447
sVerHM8KZAQO8
p3618
I4288
sVYG4ooUoDsGg
p3619
I299
sVC_rY2OG35zQ
p3620
I1043
sVhKPETn3nFYY
p3621
I472
sV29NWcTji1RY
p3622
I1284
sVJlB6ahyGObk
p3623
I2446
sVvatUyeFnAvo
p3624
I1260
sVREaKgaoK88I
p3625
I122
sVdk1zRjYGcJY
p3626
I4804
sVgY5TSXQNGUQ
p3627
I1038
sVQkHXfEr8qqI
p3628
I1668
sV0KR4T_B02FM
p3629
I2572
sVFtecqhBugCc
p3630
I7280
sVRz2livWFFRo
p3631
I334
sViLwaiw5gth8
p3632
I7196
sVnLI1lV52pIg
p3633
I1167
sVqdDNOzYtcQs
p3634
I507
sVEmQDa8ddLo8
p3635
I6796
sVS3KLGDjqNAA
p3636
I2699
sVW8lt_jN3vdI
p3637
I903
sV8wBFejPBoaY
p3638
I192
sV8B6C9mcXFNo
p3639
I1619
sVOt-rzmdI4ZQ
p3640
I836
sVJs3dnLNbjsk
p3641
I1953
sVOn3tN1FI9sM
p3642
I1432
sV3pqyXX9KdHY
p3643
I831
sVdEcA1ELLzh4
p3644
I1209
sV-LJYa2YIdLk
p3645
I2533
sVgbg0P_liWjU
p3646
I931
sVEG7tqjhP6bo
p3647
I2018
sVFGZoynO_BWI
p3648
I7363
sVrsWUZK6zQ0A
p3649
I696
sVo3gMV6o0kxY
p3650
I736
sVce2crgsHjwM
p3651
I981
sVXIl5LVRsIxs
p3652
I1353
sVi56R4SjI_Tw
p3653
I2572
sVYRTEyxsyBpo
p3654
I484
sVpICV77U5cbc
p3655
I3440
sVQqO7nHZ2i-w
p3656
I1798
sVl11sWld3Apc
p3657
I783
sVsJdXBJO3CaA
p3658
I2078
sViGXCeEXDNBo
p3659
I8603
sVSFSXG52zdZ8
p3660
I2415
sVwPzi_vCdvQE
p3661
I465
sVtgY67XZjlAI
p3662
I1385
sVGhQrw38R7mo
p3663
I1125
sVBtIX3E4p3xc
p3664
I2298
sV3IxU33e27zc
p3665
I1400
sVukcOtHCBSlw
p3666
I65
sVUws6_H9DEG4
p3667
I911
sVE9_-78H-QzI
p3668
I13812
sVoC9-FZYRan8
p3669
I2035
sVDdzXtrjaYPo
p3670
I1833
sVYIAs-PYkwMU
p3671
I958
sVX-4_w0Mohuw
p3672
I2325
sVDst6cZHsjy8
p3673
I1006
sVwk8SKVvJcWI
p3674
I251
sVf-Zh57keRhE
p3675
I5390
sV8BQ0rvkDfO4
p3676
I128
sV7S5oNG0rEr8
p3677
I314
sVd_-5FXo0U7o
p3678
I1277
sVI1qdGsTtXR0
p3679
I5687
sVnM1C5Kg6xCk
p3680
I9745
sVrjUrnwO7KcY
p3681
I1256
sVH8C5Z1H62j0
p3682
I1003
sVVaz6XhBFRqA
p3683
I1824
sV0Nb45QzPOmk
p3684
I986
sVWUjoob_7zvM
p3685
I1146
sVixGZ5tpJDdA
p3686
I3271
sVF51kAFYZmfk
p3687
I373
sV3fCwaK7tjGc
p3688
I3866
sVpezg5eLOkT8
p3689
I1297
sV8q39JxAYsSY
p3690
I6581
sVjUlw4THADmM
p3691
I348
sV3tvkEyPXZmg
p3692
I3124
sVYvM2WUULHHg
p3693
I4601
sVbGRkmOhWhXo
p3694
I16045
sVhjWlaKuLIbw
p3695
I6931
sVdRVE56LLSxQ
p3696
I897
sVRpUm16tQJmU
p3697
I281
sVohbCegJTM1E
p3698
I630
sVFbHGr3jLU-w
p3699
I611
sVgQi5AZwp-LQ
p3700
I418
sVqB-VWaEiPI4
p3701
I849
sVIU4t8szgyrE
p3702
I2283
sVhD3ARPIXWkU
p3703
I392
sV3uHbEfH2Ezs
p3704
I2117
sVZEZfcUkF_N4
p3705
I864
sVqqIsgKaeIRM
p3706
I4305
sVx2is7qJ54qM
p3707
I582
sVbArnBDsnb1w
p3708
I1621
sVEn0u4NerQOY
p3709
I3804
sV25Ng4S-oT5M
p3710
I1951
sVrW29FwQGO9k
p3711
I463
sVzeGrpNJ3bCI
p3712
I1887
sVWWZvfvpUhrM
p3713
I2424
sVcwqH0xmDLvY
p3714
I360
sVqnbB_cmVJhE
p3715
I396
sVf6fdPSw-d58
p3716
I1050
sV0idfeANTYeM
p3717
I2042
sVSaI3sr4X60A
p3718
I1805
sVlGY-DrEV2hI
p3719
I1215
sVC0S_aXEgYz4
p3720
I255
sV7wCYwp_9WDc
p3721
I1925
sVjhjp0xV1sVo
p3722
I656
sVM_gRmo2QPkc
p3723
I1186
sV0c6Rlyv6C1k
p3724
I338
sV3e4QAcve8qk
p3725
I483
sVcnSmF6FOTZA
p3726
I3094
sVIV_48bZphrI
p3727
I2243
sVtzJWqyqTFo4
p3728
I380
sVxyMZqYj-g44
p3729
I659
sVCMSWj9CXZvw
p3730
I5970
sVuowtPepb7rM
p3731
I1470
sVRNorNwh5V7A
p3732
I1559
sV02mpJUpG0TI
p3733
I795
sVZpkoihJOhM4
p3734
I450
sVrq0qPu3KlI0
p3735
I6330
sVw_U_u8myBcE
p3736
I985
sVZmJwKN4JGD4
p3737
I2029
sVWbjenszbti0
p3738
I636
sVFS8spPb_ipY
p3739
I613
sVPjLr6-QzdWc
p3740
I1994
sVEL5MIHajqVY
p3741
I10681
sVsV7NkjKAv6o
p3742
I1283
sVPklbSilLdko
p3743
I633
sV2FYEV4pfrSQ
p3744
I428
sVoP3wjblzJi8
p3745
I4068
sVsF4L8wmTpWE
p3746
I545
sV3bViWX4xkFA
p3747
I44
sVSuF_NSeG21w
p3748
I1379
sVuvn8UWVzF98
p3749
I216
sVBvH58UXrUKo
p3750
I13671
sVdvK7q4IrhOc
p3751
I355
sVwJhQQ5wI6gY
p3752
I519
sVEmsZXf1eA90
p3753
I1164
sVOzUx7zgTc2w
p3754
I245
sVxzefqiRx_DY
p3755
I6619
sVBBTP15gatfw
p3756
I2335
sVCmlGELTi2QQ
p3757
I576
sVIZM00qDMhY4
p3758
I1672
sVBmMc1EpNjo4
p3759
I6637
sV0I0T-JENkhg
p3760
I1993
sVW3htDGfCUvE
p3761
I2253
sVWQe1Oeg6NTA
p3762
I1145
sVogQJ1hXrFXs
p3763
I437
sVLIc_wqSPVNk
p3764
I7866
sVgJac19TovSs
p3765
I596
sVDxgcENEGM6A
p3766
I325
sVmOZQOXrNZTQ
p3767
I1310
sV3BnKq6Tjls8
p3768
I280
sVOSvRGV3sqm4
p3769
I1340
sVKKP6KklFsXM
p3770
I1942
sV1DwOlDzZwW4
p3771
I3013
sVtlH1i3PNh4Q
p3772
I1540
sV0j4Yj6AWHi0
p3773
I1247
sVxO6XmLBq2HM
p3774
I3459
sVCvLnavbdjls
p3775
I1704
sVlfo_31DNsPw
p3776
I2039
sVSX1XWlNcCl0
p3777
I1387
sVHIYcI1As2dk
p3778
I3578
sVWn3OzY8OwK8
p3779
I5213
sV_JXQlOilloo
p3780
I3772
sVg1gQt69et6A
p3781
I2856
sVHYx-QcQbc1Y
p3782
I1349
sVyyb8AsdTouQ
p3783
I2071
sVHBX_pwXTY80
p3784
I1427
sVzQ2b5deGRL0
p3785
I666
sV07cyOPE9t4A
p3786
I1841
sVK1A4ZL4vRVA
p3787
I2602
sV42zdZwia7zE
p3788
I307
sV_BBjuMxFSR8
p3789
I651
sV-Kmr0E3lNoA
p3790
I1165
sVxxA5nyLA2SA
p3791
I2383
sV2C0vUFJdI6s
p3792
I2182
sV26fVvGQ-3Fk
p3793
I4266
sVdc9YPwU0QmY
p3794
I1997
sVi42vePaAxkk
p3795
I1089
sV1MdlncaU5JE
p3796
I5877
sVgGsSsoiSzH4
p3797
I5940
sVCczl9o52Ky0
p3798
I3592
sV3dKrnfAgTmk
p3799
I390
sV7wX9J2BaW8A
p3800
I27045
sVv-0P2z37doo
p3801
I2437
sVr1GGLluVvPI
p3802
I1429
sVS-pevTtssdQ
p3803
I1293
sVVfP5ib3ONpA
p3804
I9871
s.